ccopy_reg
_reconstructor
p0
(cdag_exporter
dag_export
p1
c__builtin__
object
p2
Ntp3
Rp4
(dp5
S'dag'
p6
g0
(cnetworkx.classes.digraph
DiGraph
p7
g2
Ntp8
Rp9
(dp10
S'node'
p11
(dp12
I1
(dp13
sI2
(dp14
sI3
(dp15
sI4
(dp16
sI5
(dp17
sI6
(dp18
sI7
(dp19
sI8
(dp20
sI9
(dp21
sI10
(dp22
sI11
(dp23
sI12
(dp24
sI13
(dp25
sI17
(dp26
sI18
(dp27
sI19
(dp28
sI22
(dp29
sI23
(dp30
sI24
(dp31
sI27
(dp32
sI28
(dp33
sI29
(dp34
sI32
(dp35
sI33
(dp36
sI35
(dp37
sI38
(dp38
sI39
(dp39
sI40
(dp40
sI41
(dp41
sI47
(dp42
sI48
(dp43
sI55
(dp44
sI56
(dp45
sI57
(dp46
sI58
(dp47
sI59
(dp48
sI60
(dp49
sI63
(dp50
sI64
(dp51
sI65
(dp52
sI69
(dp53
sI70
(dp54
sI71
(dp55
sI72
(dp56
sI75
(dp57
sI76
(dp58
sI79
(dp59
sI80
(dp60
sI81
(dp61
sI82
(dp62
sI83
(dp63
sI85
(dp64
sI88
(dp65
sI89
(dp66
sI90
(dp67
sI91
(dp68
sI92
(dp69
sI95
(dp70
sI96
(dp71
sI100
(dp72
sI104
(dp73
sI106
(dp74
sI108
(dp75
sI109
(dp76
sI110
(dp77
sI111
(dp78
sI112
(dp79
sI115
(dp80
sI116
(dp81
sI121
(dp82
sI122
(dp83
sI123
(dp84
sI124
(dp85
sI125
(dp86
sI128
(dp87
sI129
(dp88
sI130
(dp89
sI134
(dp90
sI135
(dp91
sI136
(dp92
sI140
(dp93
sI141
(dp94
sI142
(dp95
sI146
(dp96
sI147
(dp97
sI148
(dp98
sI153
(dp99
sI154
(dp100
sI155
(dp101
sI156
(dp102
sI158
(dp103
sI161
(dp104
sI162
(dp105
sI163
(dp106
sI164
(dp107
sI165
(dp108
sI169
(dp109
sI170
(dp110
sI173
(dp111
sI174
(dp112
sI175
(dp113
sI176
(dp114
sI177
(dp115
sI178
(dp116
sI179
(dp117
sI182
(dp118
sI183
(dp119
sI186
(dp120
sI187
(dp121
sI188
(dp122
sI189
(dp123
sI190
(dp124
sI192
(dp125
sI194
(dp126
sI198
(dp127
sI199
(dp128
sI203
(dp129
sI204
(dp130
sI205
(dp131
sI206
(dp132
sI210
(dp133
sI211
(dp134
sI213
(dp135
sI214
(dp136
sI215
(dp137
sI216
(dp138
sI217
(dp139
sI220
(dp140
sI221
(dp141
sI224
(dp142
sI225
(dp143
sI229
(dp144
sI230
(dp145
sI231
(dp146
sI236
(dp147
sI237
(dp148
sI238
(dp149
sI239
(dp150
sI240
(dp151
sI241
(dp152
sI242
(dp153
sI246
(dp154
sI247
(dp155
sI249
(dp156
sI253
(dp157
sI254
(dp158
sI255
(dp159
sI256
(dp160
sI257
(dp161
sI261
(dp162
sI262
(dp163
sI263
(dp164
sI265
(dp165
sI268
(dp166
sI269
(dp167
sI270
(dp168
sI271
(dp169
sI275
(dp170
sI276
(dp171
sI277
(dp172
sI281
(dp173
sI282
(dp174
sI283
(dp175
sI286
(dp176
sI291
(dp177
sI292
(dp178
sI293
(dp179
sI297
(dp180
sI298
(dp181
sI299
(dp182
sI300
(dp183
sI306
(dp184
sI307
(dp185
sI312
(dp186
sI313
(dp187
sI314
(dp188
sI315
(dp189
sI318
(dp190
sI319
(dp191
sI324
(dp192
sI325
(dp193
sI326
(dp194
sI327
(dp195
sI331
(dp196
sI332
(dp197
sI333
(dp198
sI336
(dp199
sI337
(dp200
sI340
(dp201
sI341
(dp202
sI345
(dp203
sI346
(dp204
sI347
(dp205
sI348
(dp206
sI349
(dp207
sI351
(dp208
sI353
(dp209
sI354
(dp210
sI357
(dp211
sI358
(dp212
sI361
(dp213
sI362
(dp214
sI365
(dp215
sI366
(dp216
sI367
(dp217
sI368
(dp218
sI369
(dp219
sI370
(dp220
sI371
(dp221
sI372
(dp222
sI373
(dp223
sI374
(dp224
sI375
(dp225
sI376
(dp226
sI377
(dp227
sI378
(dp228
sI379
(dp229
sI383
(dp230
sI384
(dp231
sI385
(dp232
sI386
(dp233
sI391
(dp234
sI392
(dp235
sI393
(dp236
sI396
(dp237
sI397
(dp238
sI401
(dp239
sI402
(dp240
sI405
(dp241
sI406
(dp242
sI409
(dp243
sI410
(dp244
sI411
(dp245
sI414
(dp246
sI415
(dp247
sI416
(dp248
sI419
(dp249
sI420
(dp250
sI423
(dp251
sI424
(dp252
sI427
(dp253
sI428
(dp254
sI429
(dp255
sI430
(dp256
sI434
(dp257
sI435
(dp258
sI436
(dp259
sI437
(dp260
sI442
(dp261
sI443
(dp262
sI444
(dp263
sI445
(dp264
sI446
(dp265
sI450
(dp266
sI451
(dp267
sI452
(dp268
sI456
(dp269
sI457
(dp270
sI462
(dp271
sI463
(dp272
sI464
(dp273
sI465
(dp274
sI468
(dp275
sI469
(dp276
sI472
(dp277
sI473
(dp278
sI474
(dp279
sI478
(dp280
sI479
(dp281
sI480
(dp282
sI494
(dp283
sI495
(dp284
sI496
(dp285
sI500
(dp286
sI501
(dp287
sI502
(dp288
sI503
(dp289
sI506
(dp290
sI507
(dp291
sI515
(dp292
sI516
(dp293
sI517
(dp294
sI518
(dp295
sI519
(dp296
sI520
(dp297
sI521
(dp298
sI524
(dp299
sI525
(dp300
sI530
(dp301
sI531
(dp302
sI532
(dp303
sI535
(dp304
sI536
(dp305
sI537
(dp306
sI538
(dp307
sI539
(dp308
sI540
(dp309
sI541
(dp310
sI542
(dp311
sI547
(dp312
sI548
(dp313
sI549
(dp314
sI550
(dp315
sI551
(dp316
sI561
(dp317
sI562
(dp318
sI563
(dp319
sI564
(dp320
sI569
(dp321
sI570
(dp322
sI571
(dp323
sI572
(dp324
sI575
(dp325
sI576
(dp326
sI577
(dp327
sI580
(dp328
sI581
(dp329
sI585
(dp330
sI586
(dp331
sI587
(dp332
sI588
(dp333
sI589
(dp334
sI590
(dp335
sI591
(dp336
sI594
(dp337
sI595
(dp338
sI598
(dp339
sI599
(dp340
sI600
(dp341
sI601
(dp342
sI604
(dp343
sI605
(dp344
sI608
(dp345
sI609
(dp346
sI610
(dp347
sI611
(dp348
sI612
(dp349
sI613
(dp350
sI614
(dp351
sI617
(dp352
sI618
(dp353
sI619
(dp354
sI622
(dp355
sI623
(dp356
sI629
(dp357
sI630
(dp358
sI631
(dp359
sI632
(dp360
sI633
(dp361
sI637
(dp362
sI638
(dp363
sI639
(dp364
sI642
(dp365
sI643
(dp366
sI646
(dp367
sI647
(dp368
sI648
(dp369
sI649
(dp370
sI650
(dp371
sI653
(dp372
sI657
(dp373
sI658
(dp374
sI661
(dp375
sI662
(dp376
sI663
(dp377
sI668
(dp378
sI669
(dp379
sI670
(dp380
sI671
(dp381
sI677
(dp382
sI678
(dp383
sI679
(dp384
sI680
(dp385
sI681
(dp386
sI682
(dp387
sI686
(dp388
sI687
(dp389
sI688
(dp390
sI693
(dp391
sI694
(dp392
sI695
(dp393
sI696
(dp394
sI701
(dp395
sI702
(dp396
sI703
(dp397
sI704
(dp398
sI707
(dp399
sI708
(dp400
sI714
(dp401
sI715
(dp402
sI716
(dp403
sI717
(dp404
sI718
(dp405
sI720
(dp406
sI723
(dp407
sI724
(dp408
sI725
(dp409
sI726
(dp410
sI729
(dp411
sI730
(dp412
sI734
(dp413
sI735
(dp414
sI736
(dp415
sI737
(dp416
sI740
(dp417
sI742
(dp418
sI743
(dp419
sI744
(dp420
sI745
(dp421
sI746
(dp422
sI759
(dp423
sI760
(dp424
sI770
(dp425
sI771
(dp426
sI772
(dp427
sI773
(dp428
sI774
(dp429
sI775
(dp430
sI776
(dp431
sI777
(dp432
sI778
(dp433
sI784
(dp434
sI785
(dp435
sI786
(dp436
sI787
(dp437
sI790
(dp438
sI792
(dp439
sI793
(dp440
sI794
(dp441
sI795
(dp442
sI803
(dp443
sI804
(dp444
sI805
(dp445
sI806
(dp446
sI807
(dp447
sI808
(dp448
sI809
(dp449
sI812
(dp450
sI813
(dp451
sI817
(dp452
sI818
(dp453
sI819
(dp454
sI822
(dp455
sI823
(dp456
sI826
(dp457
sI827
(dp458
sI829
(dp459
sI830
(dp460
sI834
(dp461
sI835
(dp462
sI836
(dp463
sI837
(dp464
sI840
(dp465
sI841
(dp466
sI842
(dp467
sI845
(dp468
sI846
(dp469
sI847
(dp470
sI848
(dp471
sI850
(dp472
sI852
(dp473
sI853
(dp474
sI854
(dp475
sI858
(dp476
sI861
(dp477
sI862
(dp478
sI863
(dp479
sI864
(dp480
sI865
(dp481
sI866
(dp482
sI870
(dp483
sI871
(dp484
sI872
(dp485
sI875
(dp486
sI876
(dp487
sI879
(dp488
sI880
(dp489
sI883
(dp490
sI884
(dp491
sI888
(dp492
sI889
(dp493
sI890
(dp494
sI893
(dp495
sI894
(dp496
sI898
(dp497
sI899
(dp498
sI900
(dp499
sI903
(dp500
sI904
(dp501
sI908
(dp502
sI909
(dp503
sI910
(dp504
sI911
(dp505
sI914
(dp506
sI915
(dp507
sI916
(dp508
sI917
(dp509
sI918
(dp510
sI922
(dp511
sI923
(dp512
sI924
(dp513
sI925
(dp514
sI929
(dp515
sI930
(dp516
sI931
(dp517
sI935
(dp518
sI936
(dp519
sI937
(dp520
sI959
(dp521
sI960
(dp522
sI961
(dp523
sI962
(dp524
sI965
(dp525
sI966
(dp526
sI974
(dp527
sI975
(dp528
sI978
(dp529
sI979
(dp530
sI985
(dp531
sI986
(dp532
sI987
(dp533
sI988
(dp534
sI989
(dp535
sI992
(dp536
sI993
(dp537
sI996
(dp538
sI997
(dp539
sI1000
(dp540
sI1001
(dp541
sI1004
(dp542
sI1005
(dp543
sI1011
(dp544
sI1012
(dp545
sI1013
(dp546
sI1014
(dp547
sI1015
(dp548
sI1019
(dp549
sI1020
(dp550
sI1021
(dp551
sI1028
(dp552
sI1029
(dp553
sI1030
(dp554
sI1031
(dp555
sI1032
(dp556
sI1033
(dp557
sI1035
(dp558
sI1038
(dp559
sI1039
(dp560
sI1040
(dp561
sI1043
(dp562
sI1044
(dp563
sI1053
(dp564
sI1054
(dp565
sI1055
(dp566
sI1056
(dp567
sI1057
(dp568
sI1058
(dp569
sI1059
(dp570
sI1060
(dp571
sI1063
(dp572
sI1064
(dp573
sI1070
(dp574
sI1071
(dp575
sI1072
(dp576
sI1073
(dp577
sI1074
(dp578
sI1077
(dp579
sI1078
(dp580
sI1080
(dp581
sI1084
(dp582
sI1085
(dp583
sI1086
(dp584
sI1087
(dp585
sI1088
(dp586
sI1090
(dp587
sI1093
(dp588
sI1096
(dp589
sI1097
(dp590
sI1098
(dp591
sI1099
(dp592
sI1100
(dp593
sI1101
(dp594
sI1102
(dp595
sI1105
(dp596
sI1106
(dp597
sI1109
(dp598
sI1110
(dp599
sI1113
(dp600
sI1114
(dp601
sI1120
(dp602
sI1121
(dp603
sI1122
(dp604
sI1123
(dp605
sI1124
(dp606
sI1129
(dp607
sI1130
(dp608
sI1131
(dp609
sI1132
(dp610
sI1135
(dp611
sI1136
(dp612
sI1137
(dp613
sI1138
(dp614
sI1139
(dp615
sI1142
(dp616
sI1143
(dp617
sI1146
(dp618
sI1147
(dp619
sI1148
(dp620
sI1150
(dp621
sI1153
(dp622
sI1154
(dp623
sI1155
(dp624
sI1156
(dp625
sI1160
(dp626
sI1161
(dp627
sI1162
(dp628
sI1165
(dp629
sI1166
(dp630
sI1176
(dp631
sI1177
(dp632
sI1178
(dp633
sI1179
(dp634
sI1180
(dp635
sI1181
(dp636
sI1182
(dp637
sI1183
(dp638
sI1184
(dp639
sI1188
(dp640
sI1189
(dp641
sI1190
(dp642
sI1193
(dp643
sI1194
(dp644
sI1198
(dp645
sI1199
(dp646
sI1200
(dp647
sI1201
(dp648
sI1204
(dp649
sI1205
(dp650
sI1210
(dp651
sI1211
(dp652
sI1212
(dp653
sI1213
(dp654
sI1214
(dp655
sI1215
(dp656
sI1217
(dp657
sI1220
(dp658
sI1221
(dp659
sI1222
(dp660
sI1223
(dp661
sI1224
(dp662
sI1225
(dp663
sI1226
(dp664
sI1227
(dp665
sI1228
(dp666
sI1229
(dp667
sI1230
(dp668
sI1231
(dp669
sI1232
(dp670
sI1233
(dp671
sI1234
(dp672
sI1235
(dp673
sI1236
(dp674
sI1237
(dp675
sI1238
(dp676
sI1239
(dp677
sI1240
(dp678
sI1241
(dp679
sI1242
(dp680
sI1243
(dp681
sI1244
(dp682
sI1245
(dp683
sI1246
(dp684
sI1247
(dp685
sI1248
(dp686
sI1249
(dp687
sI1250
(dp688
sI1253
(dp689
sI1254
(dp690
sI1257
(dp691
sI1258
(dp692
sI1259
(dp693
sI1260
(dp694
sI1261
(dp695
sI1262
(dp696
sI1263
(dp697
sI1264
(dp698
sI1267
(dp699
sI1268
(dp700
sI1271
(dp701
sI1272
(dp702
sI1275
(dp703
sI1276
(dp704
sI1279
(dp705
sI1280
(dp706
sI1285
(dp707
sI1286
(dp708
sI1287
(dp709
sI1291
(dp710
sI1292
(dp711
sI1293
(dp712
sI1296
(dp713
sI1297
(dp714
sI1300
(dp715
sI1301
(dp716
sI1302
(dp717
sI1303
(dp718
sI1304
(dp719
sI1305
(dp720
sI1306
(dp721
sI1307
(dp722
sI1308
(dp723
sI1309
(dp724
sI1310
(dp725
sI1313
(dp726
sI1314
(dp727
sI1315
(dp728
sI1316
(dp729
sI1322
(dp730
sI1323
(dp731
sI1326
(dp732
sI1327
(dp733
sI1333
(dp734
sI1334
(dp735
sI1337
(dp736
sI1338
(dp737
sI1342
(dp738
sI1343
(dp739
sI1344
(dp740
sI1345
(dp741
sI1346
(dp742
sI1347
(dp743
sI1348
(dp744
sI1353
(dp745
sI1354
(dp746
sI1355
(dp747
sI1356
(dp748
sI1359
(dp749
sI1360
(dp750
sI1363
(dp751
sI1364
(dp752
sI1365
(dp753
sI1366
(dp754
sI1369
(dp755
sI1370
(dp756
sI1375
(dp757
sI1376
(dp758
sI1377
(dp759
sI1378
(dp760
sI1389
(dp761
sI1390
(dp762
sI1391
(dp763
sI1395
(dp764
sI1396
(dp765
sI1397
(dp766
sI1400
(dp767
sI1401
(dp768
sI1409
(dp769
sI1410
(dp770
sI1411
(dp771
sI1414
(dp772
sI1415
(dp773
sI1416
(dp774
sI1417
(dp775
sI1418
(dp776
sI1425
(dp777
sI1426
(dp778
sI1427
(dp779
sI1428
(dp780
sI1429
(dp781
sI1430
(dp782
sI1431
(dp783
sI1432
(dp784
sI1433
(dp785
sI1434
(dp786
sI1435
(dp787
sI1436
(dp788
sI1437
(dp789
sI1446
(dp790
sI1447
(dp791
sI1448
(dp792
sI1449
(dp793
sI1450
(dp794
sI1451
(dp795
sI1452
(dp796
sI1453
(dp797
sI1457
(dp798
sI1458
(dp799
sI1461
(dp800
sI1462
(dp801
sI1466
(dp802
sI1467
(dp803
sI1468
(dp804
sI1471
(dp805
sI1472
(dp806
sI1476
(dp807
sI1477
(dp808
sI1478
(dp809
sI1479
(dp810
sI1487
(dp811
sI1488
(dp812
sI1489
(dp813
sI1490
(dp814
sI1491
(dp815
sI1492
(dp816
sI1493
(dp817
sI1494
(dp818
sI1495
(dp819
sI1496
(dp820
sI1497
(dp821
sI1498
(dp822
sI1499
(dp823
sI1500
(dp824
sI1501
(dp825
sI1502
(dp826
sI1503
(dp827
sI1504
(dp828
sI1505
(dp829
sI1506
(dp830
sI1507
(dp831
sI1508
(dp832
sI1509
(dp833
sI1510
(dp834
sI1511
(dp835
sI1512
(dp836
sI1513
(dp837
sI1514
(dp838
sI1515
(dp839
sI1518
(dp840
sI1519
(dp841
sI1520
(dp842
sI1521
(dp843
sI1522
(dp844
sI1523
(dp845
sI1524
(dp846
sI1525
(dp847
sI1526
(dp848
sI1527
(dp849
sI1528
(dp850
sI1529
(dp851
sI1530
(dp852
sI1531
(dp853
sI1532
(dp854
sI1535
(dp855
sI1536
(dp856
sI1537
(dp857
sI1538
(dp858
sI1539
(dp859
sI1540
(dp860
sI1545
(dp861
sI1546
(dp862
sI1547
(dp863
sI1548
(dp864
sI1549
(dp865
sI1559
(dp866
sI1560
(dp867
sI1563
(dp868
sI1567
(dp869
sI1568
(dp870
sI1569
(dp871
sI1570
(dp872
sI1571
(dp873
sI1572
(dp874
sI1575
(dp875
sI1576
(dp876
sI1577
(dp877
sI1578
(dp878
sI1581
(dp879
sI1582
(dp880
sI1583
(dp881
sI1584
(dp882
sI1585
(dp883
sI1588
(dp884
sI1589
(dp885
sI1592
(dp886
sI1593
(dp887
sI1595
(dp888
sI1598
(dp889
sI1599
(dp890
sI1600
(dp891
sI1605
(dp892
sI1606
(dp893
sI1607
(dp894
sI1608
(dp895
sI1609
(dp896
sI1611
(dp897
sI1616
(dp898
sI1617
(dp899
sI1618
(dp900
sI1619
(dp901
sI1620
(dp902
sI1621
(dp903
sI1622
(dp904
sI1623
(dp905
sI1627
(dp906
sI1628
(dp907
sI1629
(dp908
sI1631
(dp909
sI1635
(dp910
sI1636
(dp911
sI1637
(dp912
sI1638
(dp913
sI1639
(dp914
sI1642
(dp915
sI1643
(dp916
sI1646
(dp917
sI1647
(dp918
sI1651
(dp919
sI1652
(dp920
sI1653
(dp921
sI1657
(dp922
sI1658
(dp923
sI1659
(dp924
sI1660
(dp925
sI1661
(dp926
sI1662
(dp927
sI1666
(dp928
sI1667
(dp929
sI1669
(dp930
sI1670
(dp931
sI1671
(dp932
sI1672
(dp933
sI1673
(dp934
sI1674
(dp935
sI1675
(dp936
sI1678
(dp937
sI1679
(dp938
sI1680
(dp939
sI1683
(dp940
sI1684
(dp941
sI1688
(dp942
sI1689
(dp943
sI1690
(dp944
sI1693
(dp945
sI1695
(dp946
sI1696
(dp947
sI1697
(dp948
sI1698
(dp949
sI1701
(dp950
sI1702
(dp951
sI1705
(dp952
sI1706
(dp953
sI1707
(dp954
sI1708
(dp955
sI1709
(dp956
sI1710
(dp957
sI1711
(dp958
sI1712
(dp959
sI1713
(dp960
sI1716
(dp961
sI1717
(dp962
sI1718
(dp963
sI1722
(dp964
sI1727
(dp965
sI1728
(dp966
sI1729
(dp967
sI1730
(dp968
sI1731
(dp969
sI1732
(dp970
sI1733
(dp971
sI1736
(dp972
sI1737
(dp973
sI1739
(dp974
sI1741
(dp975
sI1742
(dp976
sI1743
(dp977
sI1748
(dp978
sI1749
(dp979
sI1750
(dp980
sI1751
(dp981
sI1754
(dp982
sI1755
(dp983
sI1759
(dp984
sI1769
(dp985
sI1770
(dp986
sI1773
(dp987
sI1774
(dp988
sI1778
(dp989
sI1779
(dp990
sI1780
(dp991
sI1781
(dp992
sI1782
(dp993
sI1783
(dp994
sI1784
(dp995
sI1785
(dp996
sI1786
(dp997
sI1787
(dp998
sI1788
(dp999
sI1789
(dp1000
sI1790
(dp1001
sI1791
(dp1002
sI1792
(dp1003
sI1793
(dp1004
sI1799
(dp1005
sI1800
(dp1006
sI1803
(dp1007
sI1804
(dp1008
sI1807
(dp1009
sI1808
(dp1010
sI1811
(dp1011
sI1812
(dp1012
sI1815
(dp1013
sI1816
(dp1014
sI1819
(dp1015
sI1820
(dp1016
sI1823
(dp1017
sI1826
(dp1018
sI1827
(dp1019
sI1828
(dp1020
sI1829
(dp1021
sI1830
(dp1022
sI1836
(dp1023
sI1837
(dp1024
sI1838
(dp1025
sI1839
(dp1026
sI1840
(dp1027
sI1842
(dp1028
sI1844
(dp1029
sI1845
(dp1030
sI1846
(dp1031
sI1849
(dp1032
sI1850
(dp1033
sI1853
(dp1034
sI1854
(dp1035
sI1858
(dp1036
sI1859
(dp1037
sI1861
(dp1038
sI1862
(dp1039
sI1863
(dp1040
sI1864
(dp1041
sI1865
(dp1042
sI1866
(dp1043
sI1867
(dp1044
sI1868
(dp1045
sI1869
(dp1046
sI1870
(dp1047
sI1878
(dp1048
sI1879
(dp1049
sI1880
(dp1050
sI1883
(dp1051
sI1884
(dp1052
sI1885
(dp1053
sI1888
(dp1054
sI1889
(dp1055
sI1892
(dp1056
sI1893
(dp1057
sI1894
(dp1058
sI1895
(dp1059
sI1896
(dp1060
sI1904
(dp1061
sI1905
(dp1062
sI1906
(dp1063
sI1907
(dp1064
sI1908
(dp1065
sI1909
(dp1066
sI1913
(dp1067
sI1914
(dp1068
sI1915
(dp1069
sI1916
(dp1070
sI1917
(dp1071
sI1918
(dp1072
sI1919
(dp1073
sI1920
(dp1074
sI1921
(dp1075
sI1922
(dp1076
sI1923
(dp1077
sI1924
(dp1078
sI1925
(dp1079
sI1928
(dp1080
sI1929
(dp1081
sI1932
(dp1082
sI1933
(dp1083
sI1936
(dp1084
sI1937
(dp1085
sI1944
(dp1086
sI1945
(dp1087
sI1946
(dp1088
sI1948
(dp1089
sI1950
(dp1090
sI1951
(dp1091
sI1952
(dp1092
sI1969
(dp1093
sI1970
(dp1094
sI1971
(dp1095
sI1972
(dp1096
sI1973
(dp1097
sI1976
(dp1098
sI1977
(dp1099
sI1980
(dp1100
sI1981
(dp1101
sI1982
(dp1102
sI1987
(dp1103
sI1988
(dp1104
sI1989
(dp1105
sI1990
(dp1106
sI1992
(dp1107
sI1995
(dp1108
sI1996
(dp1109
sI1997
(dp1110
sI1998
(dp1111
sI2003
(dp1112
sI2004
(dp1113
sI2005
(dp1114
sI2006
(dp1115
sI2007
(dp1116
sI2008
(dp1117
sI2009
(dp1118
sI2010
(dp1119
sI2011
(dp1120
sI2012
(dp1121
sI2013
(dp1122
sI2014
(dp1123
sI2015
(dp1124
sI2019
(dp1125
sI2020
(dp1126
sI2021
(dp1127
sI2022
(dp1128
sI2023
(dp1129
sI2026
(dp1130
sI2027
(dp1131
sI2028
(dp1132
sI2029
(dp1133
sI2033
(dp1134
sI2034
(dp1135
sI2035
(dp1136
sI2038
(dp1137
sI2039
(dp1138
sI2040
(dp1139
sI2041
(dp1140
sI2042
(dp1141
sI2046
(dp1142
sI2047
(dp1143
sI2048
(dp1144
sI2051
(dp1145
sI2052
(dp1146
sI2057
(dp1147
sI2058
(dp1148
sI2059
(dp1149
sI2060
(dp1150
sI2064
(dp1151
sI2065
(dp1152
sI2066
(dp1153
sI2069
(dp1154
sI2070
(dp1155
sI2071
(dp1156
sI2075
(dp1157
sI2079
(dp1158
sI2080
(dp1159
sI2081
(dp1160
sI2085
(dp1161
sI2086
(dp1162
sI2087
(dp1163
sI2088
(dp1164
sI2089
(dp1165
sI2093
(dp1166
sI2094
(dp1167
sI2095
(dp1168
sI2099
(dp1169
sI2100
(dp1170
sI2108
(dp1171
sI2109
(dp1172
sI2110
(dp1173
sI2111
(dp1174
sI2112
(dp1175
sI2113
(dp1176
sI2114
(dp1177
sI2115
(dp1178
sI2116
(dp1179
sI2119
(dp1180
sI2120
(dp1181
sI2128
(dp1182
sI2129
(dp1183
sI2130
(dp1184
sI2133
(dp1185
sI2134
(dp1186
sI2137
(dp1187
sI2138
(dp1188
sI2141
(dp1189
sI2142
(dp1190
sI2146
(dp1191
sI2147
(dp1192
sI2148
(dp1193
sI2149
(dp1194
sI2155
(dp1195
sI2156
(dp1196
sI2157
(dp1197
sI2158
(dp1198
sI2159
(dp1199
sI2160
(dp1200
sI2161
(dp1201
sI2165
(dp1202
sI2166
(dp1203
sI2167
(dp1204
sI2168
(dp1205
sI2169
(dp1206
sI2170
(dp1207
sI2171
(dp1208
sI2175
(dp1209
sI2177
(dp1210
sI2178
(dp1211
sI2179
(dp1212
sI2180
(dp1213
sI2181
(dp1214
sI2182
(dp1215
sI2183
(dp1216
sI2184
(dp1217
sI2185
(dp1218
sI2186
(dp1219
sI2187
(dp1220
sI2191
(dp1221
sI2192
(dp1222
sI2196
(dp1223
sI2197
(dp1224
sI2198
(dp1225
sI2202
(dp1226
sI2203
(dp1227
sI2204
(dp1228
sI2205
(dp1229
sI2206
(dp1230
sI2207
(dp1231
sI2208
(dp1232
sI2209
(dp1233
sI2210
(dp1234
sI2211
(dp1235
sI2214
(dp1236
sI2215
(dp1237
sI2218
(dp1238
sI2219
(dp1239
sI2224
(dp1240
sI2225
(dp1241
sI2226
(dp1242
sI2227
(dp1243
sI2228
(dp1244
sI2229
(dp1245
sI2230
(dp1246
sI2231
(dp1247
sI2232
(dp1248
sI2233
(dp1249
sI2234
(dp1250
sI2235
(dp1251
sI2236
(dp1252
sI2237
(dp1253
sI2238
(dp1254
sI2239
(dp1255
sI2240
(dp1256
sI2244
(dp1257
sI2245
(dp1258
sI2246
(dp1259
sI2247
(dp1260
sI2251
(dp1261
sI2252
(dp1262
sI2253
(dp1263
sI2257
(dp1264
sI2258
(dp1265
sI2259
(dp1266
sI2261
(dp1267
sI2263
(dp1268
sI2265
(dp1269
sI2266
(dp1270
sI2269
(dp1271
sI2270
(dp1272
sI2271
(dp1273
sI2283
(dp1274
sI2284
(dp1275
sI2285
(dp1276
sI2286
(dp1277
sI2287
(dp1278
sI2288
(dp1279
sI2289
(dp1280
sI2290
(dp1281
sI2291
(dp1282
sI2292
(dp1283
sI2293
(dp1284
sI2296
(dp1285
sI2297
(dp1286
sI2301
(dp1287
sI2302
(dp1288
sI2303
(dp1289
sI2309
(dp1290
sI2310
(dp1291
sI2311
(dp1292
sI2312
(dp1293
sI2313
(dp1294
sI2320
(dp1295
sI2321
(dp1296
sI2322
(dp1297
sI2323
(dp1298
sI2324
(dp1299
sI2327
(dp1300
sI2328
(dp1301
sI2344
(dp1302
sI2345
(dp1303
sI2346
(dp1304
sI2347
(dp1305
sI2348
(dp1306
sI2349
(dp1307
sI2353
(dp1308
sI2354
(dp1309
sI2355
(dp1310
sI2356
(dp1311
sI2363
(dp1312
sI2364
(dp1313
sI2365
(dp1314
sI2366
(dp1315
sI2367
(dp1316
sI2368
(dp1317
sI2369
(dp1318
sI2370
(dp1319
sI2374
(dp1320
sI2375
(dp1321
sI2376
(dp1322
sI2383
(dp1323
sI2384
(dp1324
sI2385
(dp1325
sI2386
(dp1326
sI2387
(dp1327
sI2388
(dp1328
sI2391
(dp1329
sI2392
(dp1330
sI2397
(dp1331
sI2398
(dp1332
sI2399
(dp1333
sI2400
(dp1334
sI2401
(dp1335
sI2404
(dp1336
sI2405
(dp1337
sI2406
(dp1338
sI2407
(dp1339
sI2408
(dp1340
sI2409
(dp1341
sI2410
(dp1342
sI2413
(dp1343
sI2414
(dp1344
sI2415
(dp1345
sI2421
(dp1346
sI2422
(dp1347
sI2423
(dp1348
sI2424
(dp1349
sI2427
(dp1350
sI2431
(dp1351
sI2432
(dp1352
sI2433
(dp1353
sI2434
(dp1354
sI2435
(dp1355
sI2436
(dp1356
sI2437
(dp1357
sI2438
(dp1358
sI2439
(dp1359
sI2440
(dp1360
sI2443
(dp1361
sI2444
(dp1362
sI2447
(dp1363
sI2448
(dp1364
sI2451
(dp1365
sI2452
(dp1366
sI2454
(dp1367
sI2455
(dp1368
sI2456
(dp1369
sI2458
(dp1370
sI2459
(dp1371
sI2460
(dp1372
sI2461
(dp1373
sI2462
(dp1374
sI2465
(dp1375
sI2466
(dp1376
sI2467
(dp1377
sI2469
(dp1378
sI2471
(dp1379
sI2472
(dp1380
sI2473
(dp1381
sI2476
(dp1382
sI2477
(dp1383
sI2478
(dp1384
sI2481
(dp1385
sI2482
(dp1386
sI2486
(dp1387
sI2487
(dp1388
sI2505
(dp1389
sI2506
(dp1390
sI2507
(dp1391
sI2512
(dp1392
sI2516
(dp1393
sI2517
(dp1394
sI2518
(dp1395
sI2519
(dp1396
sI2520
(dp1397
sI2521
(dp1398
sI2522
(dp1399
sI2523
(dp1400
sI2524
(dp1401
sI2527
(dp1402
sI2528
(dp1403
sI2531
(dp1404
sI2532
(dp1405
sI2534
(dp1406
sI2536
(dp1407
sI2537
(dp1408
sI2538
(dp1409
sI2543
(dp1410
sI2544
(dp1411
sI2545
(dp1412
sI2546
(dp1413
ssS'graph'
p1414
(dp1415
sS'succ'
p1416
(dp1417
I1
(dp1418
I3
(dp1419
sI4
(dp1420
sI5
(dp1421
sI6
(dp1422
sI7
(dp1423
sI8
(dp1424
ssI2
(dp1425
I8
(dp1426
sI9
(dp1427
sI10
(dp1428
sI11
(dp1429
sI12
(dp1430
sI13
(dp1431
ssI3
(dp1432
I17
(dp1433
sI18
(dp1434
ssI4
(dp1435
I32
(dp1436
sI33
(dp1437
ssI5
(dp1438
I55
(dp1439
sI56
(dp1440
sI57
(dp1441
sI58
(dp1442
sI59
(dp1443
sI60
(dp1444
ssI6
(dp1445
I22
(dp1446
sI23
(dp1447
ssI7
(dp1448
I33
(dp1449
ssI8
(dp1450
I18
(dp1451
sI19
(dp1452
ssI9
(dp1453
I23
(dp1454
ssI10
(dp1455
I29
(dp1456
ssI11
(dp1457
I59
(dp1458
ssI12
(dp1459
I48
(dp1460
sI47
(dp1461
ssI13
(dp1462
I17
(dp1463
sI19
(dp1464
ssI17
(dp1465
I64
(dp1466
sI63
(dp1467
ssI18
(dp1468
I28
(dp1469
ssI19
(dp1470
I72
(dp1471
sI71
(dp1472
ssI22
(dp1473
I47
(dp1474
ssI23
(dp1475
I40
(dp1476
sI41
(dp1477
sI38
(dp1478
sI39
(dp1479
ssI24
(dp1480
I27
(dp1481
sI28
(dp1482
sI29
(dp1483
ssI27
(dp1484
I40
(dp1485
sI41
(dp1486
sI38
(dp1487
sI39
(dp1488
ssI28
(dp1489
I57
(dp1490
ssI29
(dp1491
I64
(dp1492
ssI32
(dp1493
I40
(dp1494
sI41
(dp1495
sI38
(dp1496
sI39
(dp1497
ssI33
(dp1498
I47
(dp1499
ssI35
(dp1500
I40
(dp1501
sI41
(dp1502
sI38
(dp1503
sI39
(dp1504
ssI38
(dp1505
I48
(dp1506
ssI39
(dp1507
I112
(dp1508
ssI40
(dp1509
I60
(dp1510
ssI41
(dp1511
I48
(dp1512
ssI47
(dp1513
I56
(dp1514
ssI48
(dp1515
I58
(dp1516
ssI55
(dp1517
I96
(dp1518
sI95
(dp1519
ssI56
(dp1520
I72
(dp1521
ssI57
(dp1522
I110
(dp1523
sI111
(dp1524
ssI58
(dp1525
I76
(dp1526
ssI59
(dp1527
I70
(dp1528
sI71
(dp1529
ssI60
(dp1530
I91
(dp1531
sI92
(dp1532
ssI63
(dp1533
I75
(dp1534
sI76
(dp1535
ssI64
(dp1536
I110
(dp1537
ssI65
(dp1538
I69
(dp1539
sI70
(dp1540
ssI69
(dp1541
I88
(dp1542
sI89
(dp1543
ssI70
(dp1544
I80
(dp1545
sI81
(dp1546
sI79
(dp1547
ssI71
(dp1548
I162
(dp1549
sI163
(dp1550
ssI72
(dp1551
I81
(dp1552
sI82
(dp1553
sI83
(dp1554
ssI75
(dp1555
I108
(dp1556
ssI76
(dp1557
I115
(dp1558
sI116
(dp1559
ssI79
(dp1560
I90
(dp1561
sI91
(dp1562
ssI80
(dp1563
I136
(dp1564
sI134
(dp1565
ssI81
(dp1566
I109
(dp1567
sI110
(dp1568
ssI82
(dp1569
I108
(dp1570
sI109
(dp1571
ssI83
(dp1572
I115
(dp1573
sI116
(dp1574
ssI85
(dp1575
I89
(dp1576
sI90
(dp1577
ssI88
(dp1578
I121
(dp1579
sI122
(dp1580
sI123
(dp1581
sI124
(dp1582
ssI89
(dp1583
I96
(dp1584
sI95
(dp1585
ssI90
(dp1586
I134
(dp1587
sI135
(dp1588
ssI91
(dp1589
I164
(dp1590
sI165
(dp1591
ssI92
(dp1592
I121
(dp1593
sI122
(dp1594
sI123
(dp1595
sI124
(dp1596
ssI95
(dp1597
I108
(dp1598
ssI96
(dp1599
I112
(dp1600
sI111
(dp1601
ssI100
(dp1602
I109
(dp1603
ssI104
(dp1604
I111
(dp1605
ssI106
(dp1606
I112
(dp1607
ssI108
(dp1608
I121
(dp1609
sI122
(dp1610
sI123
(dp1611
sI124
(dp1612
ssI109
(dp1613
I176
(dp1614
sI177
(dp1615
sI178
(dp1616
sI179
(dp1617
ssI110
(dp1618
I154
(dp1619
sI155
(dp1620
ssI111
(dp1621
I128
(dp1622
sI129
(dp1623
sI130
(dp1624
ssI112
(dp1625
I198
(dp1626
ssI115
(dp1627
I153
(dp1628
sI154
(dp1629
ssI116
(dp1630
I121
(dp1631
sI122
(dp1632
sI123
(dp1633
sI124
(dp1634
ssI121
(dp1635
I182
(dp1636
sI183
(dp1637
ssI122
(dp1638
I128
(dp1639
sI129
(dp1640
sI130
(dp1641
ssI123
(dp1642
I148
(dp1643
ssI124
(dp1644
I170
(dp1645
ssI125
(dp1646
I128
(dp1647
sI129
(dp1648
sI130
(dp1649
ssI128
(dp1650
I155
(dp1651
ssI129
(dp1652
I140
(dp1653
sI141
(dp1654
sI142
(dp1655
ssI130
(dp1656
I136
(dp1657
sI135
(dp1658
ssI134
(dp1659
I142
(dp1660
ssI135
(dp1661
I147
(dp1662
sI148
(dp1663
ssI136
(dp1664
I141
(dp1665
ssI140
(dp1666
I146
(dp1667
sI147
(dp1668
ssI141
(dp1669
I165
(dp1670
ssI142
(dp1671
I169
(dp1672
sI170
(dp1673
ssI146
(dp1674
I153
(dp1675
ssI147
(dp1676
I203
(dp1677
sI204
(dp1678
ssI148
(dp1679
I186
(dp1680
sI187
(dp1681
sI188
(dp1682
ssI153
(dp1683
I176
(dp1684
sI173
(dp1685
sI174
(dp1686
sI175
(dp1687
ssI154
(dp1688
I169
(dp1689
ssI155
(dp1690
I313
(dp1691
sI314
(dp1692
ssI156
(dp1693
I161
(dp1694
sI162
(dp1695
ssI158
(dp1696
I163
(dp1697
sI164
(dp1698
ssI161
(dp1699
I204
(dp1700
sI205
(dp1701
ssI162
(dp1702
I247
(dp1703
ssI163
(dp1704
I240
(dp1705
sI239
(dp1706
ssI164
(dp1707
I298
(dp1708
ssI165
(dp1709
I188
(dp1710
sI189
(dp1711
sI190
(dp1712
ssI169
(dp1713
I256
(dp1714
sI257
(dp1715
sI253
(dp1716
sI254
(dp1717
sI255
(dp1718
ssI170
(dp1719
I268
(dp1720
sI269
(dp1721
sI270
(dp1722
sI271
(dp1723
ssI173
(dp1724
I182
(dp1725
sI183
(dp1726
ssI174
(dp1727
I199
(dp1728
ssI175
(dp1729
I214
(dp1730
sI215
(dp1731
ssI176
(dp1732
I240
(dp1733
sI241
(dp1734
ssI177
(dp1735
I213
(dp1736
sI214
(dp1737
ssI178
(dp1738
I199
(dp1739
ssI179
(dp1740
I315
(dp1741
ssI182
(dp1742
I199
(dp1743
ssI183
(dp1744
I205
(dp1745
sI206
(dp1746
ssI186
(dp1747
I198
(dp1748
ssI187
(dp1749
I346
(dp1750
sI347
(dp1751
ssI188
(dp1752
I213
(dp1753
ssI189
(dp1754
I246
(dp1755
ssI190
(dp1756
I220
(dp1757
sI221
(dp1758
ssI192
(dp1759
I198
(dp1760
ssI194
(dp1761
I198
(dp1762
sI199
(dp1763
ssI198
(dp1764
I220
(dp1765
sI221
(dp1766
ssI199
(dp1767
I229
(dp1768
sI230
(dp1769
ssI203
(dp1770
I246
(dp1771
sI247
(dp1772
ssI204
(dp1773
I217
(dp1774
ssI205
(dp1775
I229
(dp1776
sI231
(dp1777
ssI206
(dp1778
I230
(dp1779
sI231
(dp1780
ssI210
(dp1781
I216
(dp1782
sI215
(dp1783
ssI211
(dp1784
I216
(dp1785
sI217
(dp1786
ssI213
(dp1787
I224
(dp1788
sI225
(dp1789
ssI214
(dp1790
I237
(dp1791
sI238
(dp1792
ssI215
(dp1793
I262
(dp1794
ssI216
(dp1795
I318
(dp1796
sI319
(dp1797
ssI217
(dp1798
I275
(dp1799
sI276
(dp1800
sI277
(dp1801
ssI220
(dp1802
I281
(dp1803
sI283
(dp1804
ssI221
(dp1805
I224
(dp1806
sI225
(dp1807
ssI224
(dp1808
I256
(dp1809
sI257
(dp1810
sI253
(dp1811
sI254
(dp1812
sI255
(dp1813
ssI225
(dp1814
I306
(dp1815
ssI229
(dp1816
I238
(dp1817
sI239
(dp1818
ssI230
(dp1819
I256
(dp1820
sI257
(dp1821
sI253
(dp1822
sI254
(dp1823
sI255
(dp1824
ssI231
(dp1825
I292
(dp1826
ssI236
(dp1827
I241
(dp1828
sI242
(dp1829
ssI237
(dp1830
I263
(dp1831
ssI238
(dp1832
I300
(dp1833
ssI239
(dp1834
I268
(dp1835
sI269
(dp1836
sI270
(dp1837
sI271
(dp1838
ssI240
(dp1839
I345
(dp1840
sI346
(dp1841
ssI241
(dp1842
I282
(dp1843
sI283
(dp1844
ssI242
(dp1845
I256
(dp1846
sI257
(dp1847
sI253
(dp1848
sI254
(dp1849
sI255
(dp1850
ssI246
(dp1851
I291
(dp1852
ssI247
(dp1853
I345
(dp1854
sI347
(dp1855
ssI249
(dp1856
I256
(dp1857
sI257
(dp1858
sI253
(dp1859
sI254
(dp1860
sI255
(dp1861
ssI253
(dp1862
I281
(dp1863
sI282
(dp1864
ssI254
(dp1865
I261
(dp1866
sI262
(dp1867
sI263
(dp1868
ssI255
(dp1869
I306
(dp1870
ssI256
(dp1871
I410
(dp1872
ssI257
(dp1873
I275
(dp1874
sI276
(dp1875
sI277
(dp1876
ssI261
(dp1877
I268
(dp1878
sI269
(dp1879
sI270
(dp1880
sI271
(dp1881
ssI262
(dp1882
I393
(dp1883
ssI263
(dp1884
I331
(dp1885
sI332
(dp1886
sI333
(dp1887
ssI265
(dp1888
I268
(dp1889
sI269
(dp1890
sI270
(dp1891
sI271
(dp1892
ssI268
(dp1893
I312
(dp1894
sI313
(dp1895
ssI269
(dp1896
I275
(dp1897
sI276
(dp1898
sI277
(dp1899
ssI270
(dp1900
I292
(dp1901
ssI271
(dp1902
I406
(dp1903
ssI275
(dp1904
I291
(dp1905
ssI276
(dp1906
I299
(dp1907
ssI277
(dp1908
I306
(dp1909
sI307
(dp1910
ssI281
(dp1911
I292
(dp1912
ssI282
(dp1913
I307
(dp1914
ssI283
(dp1915
I291
(dp1916
sI292
(dp1917
ssI286
(dp1918
I291
(dp1919
ssI291
(dp1920
I336
(dp1921
sI337
(dp1922
ssI292
(dp1923
I428
(dp1924
sI429
(dp1925
sI430
(dp1926
ssI293
(dp1927
I297
(dp1928
sI298
(dp1929
sI299
(dp1930
sI300
(dp1931
ssI297
(dp1932
I324
(dp1933
sI325
(dp1934
sI326
(dp1935
sI327
(dp1936
ssI298
(dp1937
I307
(dp1938
ssI299
(dp1939
I341
(dp1940
ssI300
(dp1941
I314
(dp1942
sI315
(dp1943
ssI306
(dp1944
I336
(dp1945
sI337
(dp1946
ssI307
(dp1947
I324
(dp1948
sI325
(dp1949
sI326
(dp1950
sI327
(dp1951
ssI312
(dp1952
I324
(dp1953
sI325
(dp1954
sI326
(dp1955
sI327
(dp1956
ssI313
(dp1957
I436
(dp1958
ssI314
(dp1959
I324
(dp1960
sI325
(dp1961
sI326
(dp1962
sI327
(dp1963
ssI315
(dp1964
I318
(dp1965
sI319
(dp1966
ssI318
(dp1967
I354
(dp1968
ssI319
(dp1969
I361
(dp1970
sI362
(dp1971
ssI324
(dp1972
I405
(dp1973
sI406
(dp1974
ssI325
(dp1975
I331
(dp1976
sI332
(dp1977
sI333
(dp1978
ssI326
(dp1979
I353
(dp1980
sI354
(dp1981
ssI327
(dp1982
I331
(dp1983
sI332
(dp1984
sI333
(dp1985
ssI331
(dp1986
I480
(dp1987
sI478
(dp1988
sI479
(dp1989
ssI332
(dp1990
I340
(dp1991
sI341
(dp1992
ssI333
(dp1993
I520
(dp1994
sI521
(dp1995
ssI336
(dp1996
I443
(dp1997
ssI337
(dp1998
I402
(dp1999
ssI340
(dp2000
I392
(dp2001
sI391
(dp2002
ssI341
(dp2003
I401
(dp2004
sI402
(dp2005
ssI345
(dp2006
I370
(dp2007
sI371
(dp2008
sI372
(dp2009
sI373
(dp2010
sI374
(dp2011
ssI346
(dp2012
I357
(dp2013
sI358
(dp2014
ssI347
(dp2015
I409
(dp2016
sI410
(dp2017
ssI348
(dp2018
I353
(dp2019
ssI349
(dp2020
I353
(dp2021
ssI351
(dp2022
I354
(dp2023
ssI353
(dp2024
I362
(dp2025
ssI354
(dp2026
I357
(dp2027
sI358
(dp2028
ssI357
(dp2029
I532
(dp2030
ssI358
(dp2031
I391
(dp2032
ssI361
(dp2033
I368
(dp2034
sI369
(dp2035
sI370
(dp2036
sI366
(dp2037
sI367
(dp2038
ssI362
(dp2039
I520
(dp2040
sI519
(dp2041
ssI365
(dp2042
I376
(dp2043
sI377
(dp2044
sI378
(dp2045
sI374
(dp2046
sI375
(dp2047
ssI366
(dp2048
I468
(dp2049
sI469
(dp2050
ssI367
(dp2051
I419
(dp2052
sI420
(dp2053
ssI368
(dp2054
I494
(dp2055
ssI369
(dp2056
I386
(dp2057
ssI370
(dp2058
I396
(dp2059
sI397
(dp2060
ssI371
(dp2061
I392
(dp2062
sI393
(dp2063
ssI372
(dp2064
I419
(dp2065
sI420
(dp2066
ssI373
(dp2067
I397
(dp2068
ssI374
(dp2069
I385
(dp2070
sI386
(dp2071
ssI375
(dp2072
I457
(dp2073
ssI376
(dp2074
I501
(dp2075
sI502
(dp2076
ssI377
(dp2077
I384
(dp2078
sI385
(dp2079
ssI378
(dp2080
I563
(dp2081
ssI379
(dp2082
I384
(dp2083
sI383
(dp2084
ssI383
(dp2085
I401
(dp2086
ssI384
(dp2087
I416
(dp2088
ssI385
(dp2089
I589
(dp2090
sI590
(dp2091
sI591
(dp2092
ssI386
(dp2093
I424
(dp2094
sI423
(dp2095
ssI391
(dp2096
I502
(dp2097
sI503
(dp2098
ssI392
(dp2099
I428
(dp2100
sI429
(dp2101
sI430
(dp2102
ssI393
(dp2103
I450
(dp2104
sI452
(dp2105
ssI396
(dp2106
I495
(dp2107
ssI397
(dp2108
I445
(dp2109
ssI401
(dp2110
I456
(dp2111
sI457
(dp2112
ssI402
(dp2113
I435
(dp2114
ssI405
(dp2115
I500
(dp2116
sI501
(dp2117
ssI406
(dp2118
I416
(dp2119
sI415
(dp2120
ssI409
(dp2121
I506
(dp2122
sI507
(dp2123
ssI410
(dp2124
I494
(dp2125
sI495
(dp2126
ssI411
(dp2127
I414
(dp2128
sI415
(dp2129
ssI414
(dp2130
I446
(dp2131
ssI415
(dp2132
I494
(dp2133
ssI416
(dp2134
I465
(dp2135
sI462
(dp2136
ssI419
(dp2137
I434
(dp2138
sI435
(dp2139
sI436
(dp2140
ssI420
(dp2141
I424
(dp2142
sI423
(dp2143
ssI423
(dp2144
I496
(dp2145
ssI424
(dp2146
I561
(dp2147
sI562
(dp2148
ssI427
(dp2149
I428
(dp2150
sI429
(dp2151
sI430
(dp2152
ssI428
(dp2153
I456
(dp2154
ssI429
(dp2155
I444
(dp2156
ssI430
(dp2157
I468
(dp2158
sI469
(dp2159
ssI434
(dp2160
I623
(dp2161
ssI435
(dp2162
I494
(dp2163
ssI436
(dp2164
I495
(dp2165
ssI437
(dp2166
I442
(dp2167
sI443
(dp2168
sI444
(dp2169
sI445
(dp2170
sI446
(dp2171
ssI442
(dp2172
I450
(dp2173
sI451
(dp2174
ssI443
(dp2175
I464
(dp2176
sI465
(dp2177
ssI444
(dp2178
I521
(dp2179
ssI445
(dp2180
I462
(dp2181
sI463
(dp2182
ssI446
(dp2183
I451
(dp2184
sI452
(dp2185
ssI450
(dp2186
I495
(dp2187
ssI451
(dp2188
I496
(dp2189
sI495
(dp2190
ssI452
(dp2191
I496
(dp2192
ssI456
(dp2193
I464
(dp2194
sI463
(dp2195
ssI457
(dp2196
I714
(dp2197
sI715
(dp2198
sI716
(dp2199
sI717
(dp2200
sI718
(dp2201
ssI462
(dp2202
I507
(dp2203
ssI463
(dp2204
I480
(dp2205
sI478
(dp2206
sI479
(dp2207
ssI464
(dp2208
I473
(dp2209
sI474
(dp2210
ssI465
(dp2211
I496
(dp2212
ssI468
(dp2213
I472
(dp2214
sI473
(dp2215
ssI469
(dp2216
I538
(dp2217
sI539
(dp2218
sI540
(dp2219
sI541
(dp2220
ssI472
(dp2221
I496
(dp2222
ssI473
(dp2223
I734
(dp2224
sI735
(dp2225
ssI474
(dp2226
I480
(dp2227
sI478
(dp2228
sI479
(dp2229
ssI478
(dp2230
I524
(dp2231
sI525
(dp2232
ssI479
(dp2233
I494
(dp2234
ssI480
(dp2235
I517
(dp2236
sI518
(dp2237
ssI494
(dp2238
I518
(dp2239
sI519
(dp2240
ssI495
(dp2241
I569
(dp2242
sI570
(dp2243
ssI496
(dp2244
I536
(dp2245
sI537
(dp2246
sI538
(dp2247
sI535
(dp2248
ssI500
(dp2249
I530
(dp2250
sI531
(dp2251
ssI501
(dp2252
I547
(dp2253
sI548
(dp2254
sI549
(dp2255
sI550
(dp2256
sI551
(dp2257
ssI502
(dp2258
I562
(dp2259
ssI503
(dp2260
I564
(dp2261
ssI506
(dp2262
I515
(dp2263
sI516
(dp2264
ssI507
(dp2265
I516
(dp2266
sI517
(dp2267
ssI515
(dp2268
I629
(dp2269
sI630
(dp2270
ssI516
(dp2271
I547
(dp2272
sI548
(dp2273
sI549
(dp2274
sI550
(dp2275
sI551
(dp2276
ssI517
(dp2277
I547
(dp2278
sI548
(dp2279
sI549
(dp2280
sI550
(dp2281
sI551
(dp2282
ssI518
(dp2283
I530
(dp2284
ssI519
(dp2285
I524
(dp2286
sI525
(dp2287
ssI520
(dp2288
I547
(dp2289
sI548
(dp2290
sI549
(dp2291
sI550
(dp2292
sI551
(dp2293
ssI521
(dp2294
I571
(dp2295
sI572
(dp2296
ssI524
(dp2297
I600
(dp2298
sI601
(dp2299
sI599
(dp2300
ssI525
(dp2301
I531
(dp2302
sI532
(dp2303
ssI530
(dp2304
I594
(dp2305
sI595
(dp2306
ssI531
(dp2307
I604
(dp2308
sI605
(dp2309
ssI532
(dp2310
I562
(dp2311
sI563
(dp2312
ssI535
(dp2313
I576
(dp2314
sI577
(dp2315
ssI536
(dp2316
I561
(dp2317
ssI537
(dp2318
I668
(dp2319
sI669
(dp2320
sI670
(dp2321
sI671
(dp2322
ssI538
(dp2323
I561
(dp2324
ssI539
(dp2325
I581
(dp2326
ssI540
(dp2327
I680
(dp2328
sI679
(dp2329
ssI541
(dp2330
I569
(dp2331
sI572
(dp2332
ssI542
(dp2333
I547
(dp2334
sI548
(dp2335
sI549
(dp2336
sI550
(dp2337
sI551
(dp2338
ssI547
(dp2339
I580
(dp2340
sI581
(dp2341
ssI548
(dp2342
I564
(dp2343
ssI549
(dp2344
I563
(dp2345
sI564
(dp2346
ssI550
(dp2347
I604
(dp2348
sI605
(dp2349
ssI551
(dp2350
I680
(dp2351
sI681
(dp2352
ssI561
(dp2353
I576
(dp2354
sI575
(dp2355
ssI562
(dp2356
I570
(dp2357
sI571
(dp2358
ssI563
(dp2359
I600
(dp2360
sI601
(dp2361
sI599
(dp2362
ssI564
(dp2363
I648
(dp2364
sI649
(dp2365
ssI569
(dp2366
I657
(dp2367
ssI570
(dp2368
I668
(dp2369
sI669
(dp2370
sI670
(dp2371
sI671
(dp2372
ssI571
(dp2373
I617
(dp2374
sI618
(dp2375
ssI572
(dp2376
I638
(dp2377
sI639
(dp2378
ssI575
(dp2379
I594
(dp2380
sI595
(dp2381
ssI576
(dp2382
I585
(dp2383
sI586
(dp2384
sI587
(dp2385
ssI577
(dp2386
I632
(dp2387
sI633
(dp2388
ssI580
(dp2389
I688
(dp2390
sI686
(dp2391
sI687
(dp2392
ssI581
(dp2393
I587
(dp2394
sI588
(dp2395
sI589
(dp2396
ssI585
(dp2397
I630
(dp2398
sI631
(dp2399
ssI586
(dp2400
I617
(dp2401
sI618
(dp2402
ssI587
(dp2403
I725
(dp2404
sI726
(dp2405
ssI588
(dp2406
I608
(dp2407
sI609
(dp2408
sI610
(dp2409
sI611
(dp2410
ssI589
(dp2411
I632
(dp2412
sI631
(dp2413
ssI590
(dp2414
I723
(dp2415
sI724
(dp2416
ssI591
(dp2417
I677
(dp2418
sI678
(dp2419
ssI594
(dp2420
I611
(dp2421
sI612
(dp2422
sI613
(dp2423
sI614
(dp2424
ssI595
(dp2425
I637
(dp2426
sI638
(dp2427
ssI598
(dp2428
I600
(dp2429
sI601
(dp2430
sI599
(dp2431
ssI599
(dp2432
I642
(dp2433
sI643
(dp2434
ssI600
(dp2435
I696
(dp2436
ssI601
(dp2437
I668
(dp2438
sI669
(dp2439
sI670
(dp2440
sI671
(dp2441
ssI604
(dp2442
I681
(dp2443
sI682
(dp2444
ssI605
(dp2445
I668
(dp2446
sI669
(dp2447
sI670
(dp2448
sI671
(dp2449
ssI608
(dp2450
I803
(dp2451
sI804
(dp2452
sI805
(dp2453
sI806
(dp2454
sI807
(dp2455
sI808
(dp2456
sI809
(dp2457
ssI609
(dp2458
I694
(dp2459
sI695
(dp2460
ssI610
(dp2461
I658
(dp2462
ssI611
(dp2463
I637
(dp2464
sI639
(dp2465
ssI612
(dp2466
I678
(dp2467
sI679
(dp2468
ssI613
(dp2469
I657
(dp2470
ssI614
(dp2471
I648
(dp2472
sI647
(dp2473
ssI617
(dp2474
I622
(dp2475
sI623
(dp2476
ssI618
(dp2477
I642
(dp2478
sI643
(dp2479
ssI619
(dp2480
I622
(dp2481
ssI622
(dp2482
I633
(dp2483
ssI623
(dp2484
I718
(dp2485
ssI629
(dp2486
I662
(dp2487
sI663
(dp2488
ssI630
(dp2489
I729
(dp2490
sI730
(dp2491
ssI631
(dp2492
I773
(dp2493
sI774
(dp2494
ssI632
(dp2495
I787
(dp2496
ssI633
(dp2497
I658
(dp2498
ssI637
(dp2499
I661
(dp2500
sI662
(dp2501
ssI638
(dp2502
I759
(dp2503
ssI639
(dp2504
I701
(dp2505
sI702
(dp2506
ssI642
(dp2507
I760
(dp2508
ssI643
(dp2509
I759
(dp2510
ssI646
(dp2511
I649
(dp2512
ssI647
(dp2513
I704
(dp2514
sI701
(dp2515
ssI648
(dp2516
I772
(dp2517
sI773
(dp2518
ssI649
(dp2519
I658
(dp2520
ssI650
(dp2521
I657
(dp2522
ssI653
(dp2523
I657
(dp2524
sI658
(dp2525
ssI657
(dp2526
I760
(dp2527
ssI658
(dp2528
I784
(dp2529
sI785
(dp2530
ssI661
(dp2531
I744
(dp2532
sI743
(dp2533
ssI662
(dp2534
I759
(dp2535
ssI663
(dp2536
I784
(dp2537
ssI668
(dp2538
I742
(dp2539
sI743
(dp2540
ssI669
(dp2541
I872
(dp2542
sI870
(dp2543
sI871
(dp2544
ssI670
(dp2545
I704
(dp2546
sI703
(dp2547
ssI671
(dp2548
I693
(dp2549
sI694
(dp2550
ssI677
(dp2551
I688
(dp2552
sI686
(dp2553
sI687
(dp2554
ssI678
(dp2555
I716
(dp2556
ssI679
(dp2557
I688
(dp2558
sI686
(dp2559
sI687
(dp2560
ssI680
(dp2561
I696
(dp2562
sI695
(dp2563
ssI681
(dp2564
I702
(dp2565
sI703
(dp2566
ssI682
(dp2567
I786
(dp2568
sI787
(dp2569
ssI686
(dp2570
I736
(dp2571
sI735
(dp2572
ssI687
(dp2573
I715
(dp2574
ssI688
(dp2575
I792
(dp2576
sI795
(dp2577
ssI693
(dp2578
I736
(dp2579
sI734
(dp2580
ssI694
(dp2581
I745
(dp2582
ssI695
(dp2583
I730
(dp2584
ssI696
(dp2585
I717
(dp2586
ssI701
(dp2587
I723
(dp2588
sI726
(dp2589
ssI702
(dp2590
I803
(dp2591
sI804
(dp2592
sI805
(dp2593
sI806
(dp2594
sI807
(dp2595
sI808
(dp2596
sI809
(dp2597
ssI703
(dp2598
I708
(dp2599
ssI704
(dp2600
I707
(dp2601
sI708
(dp2602
ssI707
(dp2603
I776
(dp2604
sI775
(dp2605
ssI708
(dp2606
I771
(dp2607
sI772
(dp2608
ssI714
(dp2609
I893
(dp2610
sI894
(dp2611
ssI715
(dp2612
I760
(dp2613
ssI716
(dp2614
I777
(dp2615
sI778
(dp2616
ssI717
(dp2617
I759
(dp2618
ssI718
(dp2619
I760
(dp2620
ssI720
(dp2621
I724
(dp2622
sI725
(dp2623
ssI723
(dp2624
I803
(dp2625
sI804
(dp2626
sI805
(dp2627
sI806
(dp2628
sI807
(dp2629
sI808
(dp2630
sI809
(dp2631
ssI724
(dp2632
I760
(dp2633
ssI725
(dp2634
I803
(dp2635
sI804
(dp2636
sI805
(dp2637
sI806
(dp2638
sI807
(dp2639
sI808
(dp2640
sI809
(dp2641
ssI726
(dp2642
I774
(dp2643
sI775
(dp2644
ssI729
(dp2645
I778
(dp2646
ssI730
(dp2647
I819
(dp2648
ssI734
(dp2649
I904
(dp2650
ssI735
(dp2651
I817
(dp2652
sI818
(dp2653
ssI736
(dp2654
I770
(dp2655
sI771
(dp2656
ssI737
(dp2657
I742
(dp2658
ssI740
(dp2659
I744
(dp2660
sI745
(dp2661
ssI742
(dp2662
I759
(dp2663
ssI743
(dp2664
I760
(dp2665
sI759
(dp2666
ssI744
(dp2667
I760
(dp2668
ssI745
(dp2669
I776
(dp2670
sI777
(dp2671
ssI746
(dp2672
I759
(dp2673
ssI759
(dp2674
I803
(dp2675
sI804
(dp2676
sI805
(dp2677
sI806
(dp2678
sI807
(dp2679
sI808
(dp2680
sI809
(dp2681
ssI760
(dp2682
I836
(dp2683
ssI770
(dp2684
I793
(dp2685
sI794
(dp2686
ssI771
(dp2687
I785
(dp2688
sI786
(dp2689
ssI772
(dp2690
I864
(dp2691
sI865
(dp2692
sI866
(dp2693
sI861
(dp2694
sI862
(dp2695
sI863
(dp2696
ssI773
(dp2697
I792
(dp2698
sI793
(dp2699
ssI774
(dp2700
I880
(dp2701
sI879
(dp2702
ssI775
(dp2703
I822
(dp2704
sI823
(dp2705
ssI776
(dp2706
I826
(dp2707
sI827
(dp2708
ssI777
(dp2709
I813
(dp2710
ssI778
(dp2711
I818
(dp2712
sI819
(dp2713
ssI784
(dp2714
I884
(dp2715
ssI785
(dp2716
I864
(dp2717
sI865
(dp2718
sI866
(dp2719
sI861
(dp2720
sI862
(dp2721
sI863
(dp2722
ssI786
(dp2723
I842
(dp2724
ssI787
(dp2725
I803
(dp2726
sI804
(dp2727
sI805
(dp2728
sI806
(dp2729
sI807
(dp2730
sI808
(dp2731
sI809
(dp2732
ssI790
(dp2733
I794
(dp2734
sI795
(dp2735
ssI792
(dp2736
I803
(dp2737
sI804
(dp2738
sI805
(dp2739
sI806
(dp2740
sI807
(dp2741
sI808
(dp2742
sI809
(dp2743
ssI793
(dp2744
I872
(dp2745
sI870
(dp2746
sI871
(dp2747
ssI794
(dp2748
I959
(dp2749
ssI795
(dp2750
I875
(dp2751
sI876
(dp2752
ssI803
(dp2753
I864
(dp2754
sI865
(dp2755
sI866
(dp2756
sI861
(dp2757
sI862
(dp2758
sI863
(dp2759
ssI804
(dp2760
I848
(dp2761
sI846
(dp2762
sI847
(dp2763
ssI805
(dp2764
I812
(dp2765
sI813
(dp2766
ssI806
(dp2767
I841
(dp2768
ssI807
(dp2769
I826
(dp2770
sI827
(dp2771
ssI808
(dp2772
I962
(dp2773
ssI809
(dp2774
I822
(dp2775
sI823
(dp2776
ssI812
(dp2777
I909
(dp2778
sI910
(dp2779
ssI813
(dp2780
I961
(dp2781
ssI817
(dp2782
I836
(dp2783
ssI818
(dp2784
I835
(dp2785
sI836
(dp2786
ssI819
(dp2787
I924
(dp2788
sI925
(dp2789
ssI822
(dp2790
I835
(dp2791
ssI823
(dp2792
I848
(dp2793
sI846
(dp2794
sI847
(dp2795
ssI826
(dp2796
I916
(dp2797
sI917
(dp2798
sI918
(dp2799
ssI827
(dp2800
I962
(dp2801
ssI829
(dp2802
I835
(dp2803
ssI830
(dp2804
I835
(dp2805
ssI834
(dp2806
I836
(dp2807
ssI835
(dp2808
I961
(dp2809
ssI836
(dp2810
I854
(dp2811
ssI837
(dp2812
I840
(dp2813
sI841
(dp2814
sI842
(dp2815
ssI840
(dp2816
I937
(dp2817
ssI841
(dp2818
I922
(dp2819
sI923
(dp2820
ssI842
(dp2821
I864
(dp2822
sI865
(dp2823
sI866
(dp2824
sI861
(dp2825
sI862
(dp2826
sI863
(dp2827
ssI845
(dp2828
I848
(dp2829
sI846
(dp2830
sI847
(dp2831
ssI846
(dp2832
I852
(dp2833
sI853
(dp2834
sI854
(dp2835
ssI847
(dp2836
I883
(dp2837
sI884
(dp2838
ssI848
(dp2839
I960
(dp2840
ssI850
(dp2841
I853
(dp2842
ssI852
(dp2843
I864
(dp2844
sI865
(dp2845
sI866
(dp2846
sI861
(dp2847
sI862
(dp2848
sI863
(dp2849
ssI853
(dp2850
I961
(dp2851
sI962
(dp2852
ssI854
(dp2853
I872
(dp2854
sI870
(dp2855
sI871
(dp2856
ssI858
(dp2857
I864
(dp2858
sI865
(dp2859
sI866
(dp2860
sI861
(dp2861
sI862
(dp2862
sI863
(dp2863
ssI861
(dp2864
I961
(dp2865
ssI862
(dp2866
I875
(dp2867
sI876
(dp2868
ssI863
(dp2869
I888
(dp2870
sI889
(dp2871
sI890
(dp2872
ssI864
(dp2873
I904
(dp2874
sI903
(dp2875
ssI865
(dp2876
I880
(dp2877
sI879
(dp2878
ssI866
(dp2879
I959
(dp2880
ssI870
(dp2881
I978
(dp2882
sI979
(dp2883
ssI871
(dp2884
I894
(dp2885
ssI872
(dp2886
I936
(dp2887
sI937
(dp2888
ssI875
(dp2889
I929
(dp2890
sI930
(dp2891
ssI876
(dp2892
I898
(dp2893
ssI879
(dp2894
I888
(dp2895
sI889
(dp2896
sI890
(dp2897
ssI880
(dp2898
I975
(dp2899
ssI883
(dp2900
I888
(dp2901
sI889
(dp2902
sI890
(dp2903
ssI884
(dp2904
I910
(dp2905
sI911
(dp2906
ssI888
(dp2907
I960
(dp2908
ssI889
(dp2909
I985
(dp2910
sI986
(dp2911
ssI890
(dp2912
I962
(dp2913
ssI893
(dp2914
I898
(dp2915
sI899
(dp2916
ssI894
(dp2917
I899
(dp2918
ssI898
(dp2919
I959
(dp2920
ssI899
(dp2921
I929
(dp2922
sI931
(dp2923
ssI900
(dp2924
I903
(dp2925
ssI903
(dp2926
I936
(dp2927
sI935
(dp2928
ssI904
(dp2929
I908
(dp2930
sI909
(dp2931
ssI908
(dp2932
I965
(dp2933
sI966
(dp2934
ssI909
(dp2935
I974
(dp2936
ssI910
(dp2937
I961
(dp2938
ssI911
(dp2939
I914
(dp2940
sI915
(dp2941
sI916
(dp2942
ssI914
(dp2943
I923
(dp2944
sI924
(dp2945
ssI915
(dp2946
I1011
(dp2947
sI1012
(dp2948
sI1013
(dp2949
sI1014
(dp2950
sI1015
(dp2951
ssI916
(dp2952
I988
(dp2953
sI989
(dp2954
ssI917
(dp2955
I975
(dp2956
ssI918
(dp2957
I959
(dp2958
ssI922
(dp2959
I930
(dp2960
sI931
(dp2961
ssI923
(dp2962
I966
(dp2963
ssI924
(dp2964
I960
(dp2965
ssI925
(dp2966
I960
(dp2967
ssI929
(dp2968
I962
(dp2969
ssI930
(dp2970
I959
(dp2971
ssI931
(dp2972
I962
(dp2973
ssI935
(dp2974
I960
(dp2975
sI959
(dp2976
ssI936
(dp2977
I986
(dp2978
sI987
(dp2979
ssI937
(dp2980
I960
(dp2981
sI961
(dp2982
ssI959
(dp2983
I978
(dp2984
sI979
(dp2985
ssI960
(dp2986
I974
(dp2987
sI975
(dp2988
ssI961
(dp2989
I974
(dp2990
ssI962
(dp2991
I996
(dp2992
sI997
(dp2993
ssI965
(dp2994
I975
(dp2995
ssI966
(dp2996
I974
(dp2997
ssI974
(dp2998
I987
(dp2999
sI988
(dp3000
ssI975
(dp3001
I989
(dp3002
ssI978
(dp3003
I996
(dp3004
sI997
(dp3005
ssI979
(dp3006
I1033
(dp3007
ssI985
(dp3008
I1011
(dp3009
sI1012
(dp3010
sI1013
(dp3011
sI1014
(dp3012
sI1015
(dp3013
ssI986
(dp3014
I993
(dp3015
ssI987
(dp3016
I992
(dp3017
sI993
(dp3018
ssI988
(dp3019
I1001
(dp3020
ssI989
(dp3021
I1011
(dp3022
sI1012
(dp3023
sI1013
(dp3024
sI1014
(dp3025
sI1015
(dp3026
ssI992
(dp3027
I1000
(dp3028
sI1001
(dp3029
ssI993
(dp3030
I1005
(dp3031
ssI996
(dp3032
I1032
(dp3033
sI1031
(dp3034
ssI997
(dp3035
I1004
(dp3036
sI1005
(dp3037
ssI1000
(dp3038
I1011
(dp3039
sI1012
(dp3040
sI1013
(dp3041
sI1014
(dp3042
sI1015
(dp3043
ssI1001
(dp3044
I1019
(dp3045
sI1020
(dp3046
ssI1004
(dp3047
I1011
(dp3048
sI1012
(dp3049
sI1013
(dp3050
sI1014
(dp3051
sI1015
(dp3052
ssI1005
(dp3053
I1020
(dp3054
sI1021
(dp3055
ssI1011
(dp3056
I1032
(dp3057
sI1033
(dp3058
ssI1012
(dp3059
I1040
(dp3060
sI1039
(dp3061
ssI1013
(dp3062
I1058
(dp3063
ssI1014
(dp3064
I1019
(dp3065
sI1021
(dp3066
ssI1015
(dp3067
I1028
(dp3068
sI1029
(dp3069
ssI1019
(dp3070
I1054
(dp3071
ssI1020
(dp3072
I1029
(dp3073
sI1030
(dp3074
ssI1021
(dp3075
I1030
(dp3076
sI1031
(dp3077
ssI1028
(dp3078
I1040
(dp3079
ssI1029
(dp3080
I1057
(dp3081
ssI1030
(dp3082
I1056
(dp3083
sI1057
(dp3084
sI1058
(dp3085
sI1059
(dp3086
sI1060
(dp3087
sI1053
(dp3088
sI1054
(dp3089
sI1055
(dp3090
ssI1031
(dp3091
I1038
(dp3092
ssI1032
(dp3093
I1055
(dp3094
ssI1033
(dp3095
I1056
(dp3096
ssI1035
(dp3097
I1038
(dp3098
sI1039
(dp3099
ssI1038
(dp3100
I1059
(dp3101
ssI1039
(dp3102
I1043
(dp3103
sI1044
(dp3104
ssI1040
(dp3105
I1044
(dp3106
ssI1043
(dp3107
I1060
(dp3108
ssI1044
(dp3109
I1064
(dp3110
sI1063
(dp3111
ssI1053
(dp3112
I1072
(dp3113
sI1071
(dp3114
ssI1054
(dp3115
I1120
(dp3116
sI1121
(dp3117
sI1122
(dp3118
sI1123
(dp3119
sI1124
(dp3120
ssI1055
(dp3121
I1072
(dp3122
sI1073
(dp3123
ssI1056
(dp3124
I1074
(dp3125
sI1070
(dp3126
ssI1057
(dp3127
I1073
(dp3128
sI1074
(dp3129
ssI1058
(dp3130
I1077
(dp3131
sI1078
(dp3132
ssI1059
(dp3133
I1088
(dp3134
sI1087
(dp3135
ssI1060
(dp3136
I1064
(dp3137
sI1063
(dp3138
ssI1063
(dp3139
I1070
(dp3140
sI1071
(dp3141
ssI1064
(dp3142
I1088
(dp3143
ssI1070
(dp3144
I1096
(dp3145
sI1097
(dp3146
ssI1071
(dp3147
I1077
(dp3148
sI1078
(dp3149
ssI1072
(dp3150
I1101
(dp3151
sI1102
(dp3152
ssI1073
(dp3153
I1184
(dp3154
ssI1074
(dp3155
I1086
(dp3156
sI1087
(dp3157
ssI1077
(dp3158
I1109
(dp3159
sI1110
(dp3160
ssI1078
(dp3161
I1084
(dp3162
sI1085
(dp3163
ssI1080
(dp3164
I1085
(dp3165
sI1086
(dp3166
ssI1084
(dp3167
I1146
(dp3168
sI1147
(dp3169
ssI1085
(dp3170
I1098
(dp3171
sI1099
(dp3172
ssI1086
(dp3173
I1096
(dp3174
sI1102
(dp3175
ssI1087
(dp3176
I1120
(dp3177
sI1121
(dp3178
sI1122
(dp3179
sI1123
(dp3180
sI1124
(dp3181
ssI1088
(dp3182
I1099
(dp3183
sI1100
(dp3184
ssI1090
(dp3185
I1097
(dp3186
sI1098
(dp3187
ssI1093
(dp3188
I1100
(dp3189
sI1101
(dp3190
ssI1096
(dp3191
I1130
(dp3192
sI1131
(dp3193
ssI1097
(dp3194
I1105
(dp3195
sI1106
(dp3196
ssI1098
(dp3197
I1106
(dp3198
ssI1099
(dp3199
I1113
(dp3200
sI1114
(dp3201
ssI1100
(dp3202
I1110
(dp3203
ssI1101
(dp3204
I1113
(dp3205
sI1114
(dp3206
ssI1102
(dp3207
I1131
(dp3208
sI1132
(dp3209
ssI1105
(dp3210
I1147
(dp3211
ssI1106
(dp3212
I1120
(dp3213
sI1121
(dp3214
sI1122
(dp3215
sI1123
(dp3216
sI1124
(dp3217
ssI1109
(dp3218
I1213
(dp3219
ssI1110
(dp3220
I1181
(dp3221
sI1182
(dp3222
ssI1113
(dp3223
I1120
(dp3224
sI1121
(dp3225
sI1122
(dp3226
sI1123
(dp3227
sI1124
(dp3228
ssI1114
(dp3229
I1120
(dp3230
sI1121
(dp3231
sI1122
(dp3232
sI1123
(dp3233
sI1124
(dp3234
ssI1120
(dp3235
I1155
(dp3236
sI1156
(dp3237
ssI1121
(dp3238
I1129
(dp3239
sI1132
(dp3240
ssI1122
(dp3241
I1204
(dp3242
sI1205
(dp3243
ssI1123
(dp3244
I1136
(dp3245
sI1137
(dp3246
sI1135
(dp3247
ssI1124
(dp3248
I1129
(dp3249
sI1130
(dp3250
ssI1129
(dp3251
I1153
(dp3252
sI1154
(dp3253
ssI1130
(dp3254
I1137
(dp3255
sI1138
(dp3256
sI1139
(dp3257
ssI1131
(dp3258
I1156
(dp3259
ssI1132
(dp3260
I1142
(dp3261
sI1143
(dp3262
ssI1135
(dp3263
I1165
(dp3264
sI1166
(dp3265
ssI1136
(dp3266
I1211
(dp3267
ssI1137
(dp3268
I1142
(dp3269
sI1143
(dp3270
ssI1138
(dp3271
I1179
(dp3272
sI1180
(dp3273
ssI1139
(dp3274
I1161
(dp3275
sI1162
(dp3276
ssI1142
(dp3277
I1184
(dp3278
sI1183
(dp3279
ssI1143
(dp3280
I1178
(dp3281
sI1179
(dp3282
ssI1146
(dp3283
I1160
(dp3284
sI1161
(dp3285
ssI1147
(dp3286
I1248
(dp3287
sI1249
(dp3288
sI1250
(dp3289
sI1245
(dp3290
sI1246
(dp3291
sI1247
(dp3292
ssI1148
(dp3293
I1153
(dp3294
ssI1150
(dp3295
I1154
(dp3296
sI1155
(dp3297
ssI1153
(dp3298
I1188
(dp3299
sI1189
(dp3300
sI1190
(dp3301
ssI1154
(dp3302
I1176
(dp3303
sI1177
(dp3304
ssI1155
(dp3305
I1162
(dp3306
ssI1156
(dp3307
I1165
(dp3308
sI1166
(dp3309
ssI1160
(dp3310
I1272
(dp3311
sI1271
(dp3312
ssI1161
(dp3313
I1182
(dp3314
sI1183
(dp3315
ssI1162
(dp3316
I1177
(dp3317
sI1178
(dp3318
ssI1165
(dp3319
I1180
(dp3320
sI1181
(dp3321
ssI1166
(dp3322
I1391
(dp3323
ssI1176
(dp3324
I1188
(dp3325
sI1189
(dp3326
sI1190
(dp3327
ssI1177
(dp3328
I1272
(dp3329
sI1271
(dp3330
ssI1178
(dp3331
I1200
(dp3332
sI1201
(dp3333
ssI1179
(dp3334
I1198
(dp3335
sI1199
(dp3336
ssI1180
(dp3337
I1212
(dp3338
ssI1181
(dp3339
I1188
(dp3340
sI1189
(dp3341
sI1190
(dp3342
ssI1182
(dp3343
I1210
(dp3344
sI1211
(dp3345
sI1212
(dp3346
sI1213
(dp3347
ssI1183
(dp3348
I1287
(dp3349
ssI1184
(dp3350
I1275
(dp3351
sI1276
(dp3352
ssI1188
(dp3353
I1194
(dp3354
ssI1189
(dp3355
I1200
(dp3356
sI1199
(dp3357
ssI1190
(dp3358
I1193
(dp3359
sI1194
(dp3360
ssI1193
(dp3361
I1240
(dp3362
sI1241
(dp3363
sI1242
(dp3364
sI1243
(dp3365
sI1244
(dp3366
sI1245
(dp3367
ssI1194
(dp3368
I1322
(dp3369
ssI1198
(dp3370
I1230
(dp3371
sI1231
(dp3372
sI1232
(dp3373
sI1233
(dp3374
sI1234
(dp3375
sI1235
(dp3376
ssI1199
(dp3377
I1280
(dp3378
sI1279
(dp3379
ssI1200
(dp3380
I1254
(dp3381
ssI1201
(dp3382
I1204
(dp3383
sI1205
(dp3384
ssI1204
(dp3385
I1389
(dp3386
sI1390
(dp3387
ssI1205
(dp3388
I1364
(dp3389
sI1365
(dp3390
sI1366
(dp3391
ssI1210
(dp3392
I1512
(dp3393
sI1513
(dp3394
sI1514
(dp3395
sI1515
(dp3396
sI1511
(dp3397
ssI1211
(dp3398
I1770
(dp3399
ssI1212
(dp3400
I1326
(dp3401
sI1327
(dp3402
ssI1213
(dp3403
I1296
(dp3404
sI1297
(dp3405
ssI1214
(dp3406
I1220
(dp3407
sI1221
(dp3408
sI1222
(dp3409
sI1223
(dp3410
sI1224
(dp3411
sI1225
(dp3412
ssI1215
(dp3413
I1225
(dp3414
sI1226
(dp3415
sI1227
(dp3416
sI1228
(dp3417
sI1229
(dp3418
sI1230
(dp3419
ssI1217
(dp3420
I1235
(dp3421
sI1236
(dp3422
sI1237
(dp3423
sI1238
(dp3424
sI1239
(dp3425
sI1240
(dp3426
ssI1220
(dp3427
I1732
(dp3428
ssI1221
(dp3429
I1258
(dp3430
sI1259
(dp3431
sI1260
(dp3432
ssI1222
(dp3433
I1390
(dp3434
sI1391
(dp3435
ssI1223
(dp3436
I1354
(dp3437
sI1355
(dp3438
ssI1224
(dp3439
I1334
(dp3440
ssI1225
(dp3441
I1322
(dp3442
sI1323
(dp3443
ssI1226
(dp3444
I1391
(dp3445
ssI1227
(dp3446
I1326
(dp3447
sI1327
(dp3448
ssI1228
(dp3449
I1461
(dp3450
sI1462
(dp3451
ssI1229
(dp3452
I1304
(dp3453
sI1305
(dp3454
sI1306
(dp3455
ssI1230
(dp3456
I1770
(dp3457
ssI1231
(dp3458
I1491
(dp3459
sI1492
(dp3460
sI1493
(dp3461
sI1494
(dp3462
sI1495
(dp3463
ssI1232
(dp3464
I1488
(dp3465
sI1489
(dp3466
sI1490
(dp3467
sI1491
(dp3468
sI1487
(dp3469
ssI1233
(dp3470
I1285
(dp3471
sI1286
(dp3472
ssI1234
(dp3473
I1323
(dp3474
ssI1235
(dp3475
I1253
(dp3476
sI1254
(dp3477
ssI1236
(dp3478
I1627
(dp3479
sI1628
(dp3480
ssI1237
(dp3481
I1369
(dp3482
sI1370
(dp3483
ssI1238
(dp3484
I1360
(dp3485
sI1359
(dp3486
ssI1239
(dp3487
I1296
(dp3488
sI1297
(dp3489
ssI1240
(dp3490
I1396
(dp3491
sI1397
(dp3492
ssI1241
(dp3493
I1268
(dp3494
ssI1242
(dp3495
I1410
(dp3496
ssI1243
(dp3497
I1285
(dp3498
ssI1244
(dp3499
I1323
(dp3500
ssI1245
(dp3501
I1472
(dp3502
sI1471
(dp3503
ssI1246
(dp3504
I1292
(dp3505
sI1293
(dp3506
ssI1247
(dp3507
I1304
(dp3508
sI1302
(dp3509
sI1303
(dp3510
ssI1248
(dp3511
I1390
(dp3512
ssI1249
(dp3513
I1260
(dp3514
sI1261
(dp3515
sI1262
(dp3516
ssI1250
(dp3517
I1334
(dp3518
ssI1253
(dp3519
I1409
(dp3520
ssI1254
(dp3521
I1390
(dp3522
ssI1257
(dp3523
I1264
(dp3524
sI1262
(dp3525
sI1263
(dp3526
ssI1258
(dp3527
I1946
(dp3528
ssI1259
(dp3529
I1276
(dp3530
ssI1260
(dp3531
I1461
(dp3532
sI1462
(dp3533
ssI1261
(dp3534
I1280
(dp3535
ssI1262
(dp3536
I1389
(dp3537
ssI1263
(dp3538
I1291
(dp3539
sI1293
(dp3540
ssI1264
(dp3541
I1267
(dp3542
sI1268
(dp3543
ssI1267
(dp3544
I1291
(dp3545
sI1292
(dp3546
ssI1268
(dp3547
I1323
(dp3548
ssI1271
(dp3549
I1345
(dp3550
sI1346
(dp3551
ssI1272
(dp3552
I1376
(dp3553
sI1377
(dp3554
sI1378
(dp3555
sI1375
(dp3556
ssI1275
(dp3557
I1286
(dp3558
sI1287
(dp3559
ssI1276
(dp3560
I1409
(dp3561
ssI1279
(dp3562
I1433
(dp3563
sI1434
(dp3564
sI1435
(dp3565
ssI1280
(dp3566
I1313
(dp3567
sI1314
(dp3568
ssI1285
(dp3569
I1353
(dp3570
sI1354
(dp3571
ssI1286
(dp3572
I1457
(dp3573
ssI1287
(dp3574
I1429
(dp3575
sI1430
(dp3576
sI1431
(dp3577
ssI1291
(dp3578
I1369
(dp3579
sI1370
(dp3580
ssI1292
(dp3581
I1448
(dp3582
sI1447
(dp3583
ssI1293
(dp3584
I1736
(dp3585
sI1737
(dp3586
ssI1296
(dp3587
I1360
(dp3588
ssI1297
(dp3589
I1333
(dp3590
ssI1300
(dp3591
I1306
(dp3592
sI1307
(dp3593
sI1308
(dp3594
ssI1301
(dp3595
I1308
(dp3596
sI1309
(dp3597
sI1310
(dp3598
ssI1302
(dp3599
I1389
(dp3600
ssI1303
(dp3601
I1337
(dp3602
sI1338
(dp3603
ssI1304
(dp3604
I1346
(dp3605
sI1347
(dp3606
ssI1305
(dp3607
I1799
(dp3608
ssI1306
(dp3609
I1337
(dp3610
sI1338
(dp3611
ssI1307
(dp3612
I1314
(dp3613
ssI1308
(dp3614
I1333
(dp3615
ssI1309
(dp3616
I1376
(dp3617
sI1377
(dp3618
sI1378
(dp3619
sI1375
(dp3620
ssI1310
(dp3621
I1600
(dp3622
ssI1313
(dp3623
I1647
(dp3624
ssI1314
(dp3625
I1411
(dp3626
ssI1315
(dp3627
I1322
(dp3628
ssI1316
(dp3629
I1322
(dp3630
ssI1322
(dp3631
I1560
(dp3632
ssI1323
(dp3633
I1411
(dp3634
ssI1326
(dp3635
I1333
(dp3636
sI1334
(dp3637
ssI1327
(dp3638
I1344
(dp3639
sI1345
(dp3640
ssI1333
(dp3641
I1376
(dp3642
sI1377
(dp3643
sI1378
(dp3644
sI1375
(dp3645
ssI1334
(dp3646
I1356
(dp3647
ssI1337
(dp3648
I1355
(dp3649
sI1356
(dp3650
ssI1338
(dp3651
I1892
(dp3652
sI1893
(dp3653
sI1894
(dp3654
ssI1342
(dp3655
I1347
(dp3656
sI1348
(dp3657
ssI1343
(dp3658
I1344
(dp3659
sI1348
(dp3660
ssI1344
(dp3661
I1400
(dp3662
sI1401
(dp3663
ssI1345
(dp3664
I1451
(dp3665
sI1452
(dp3666
ssI1346
(dp3667
I1435
(dp3668
sI1436
(dp3669
sI1437
(dp3670
ssI1347
(dp3671
I1389
(dp3672
ssI1348
(dp3673
I1606
(dp3674
sI1607
(dp3675
ssI1353
(dp3676
I1416
(dp3677
sI1414
(dp3678
sI1415
(dp3679
ssI1354
(dp3680
I1478
(dp3681
sI1479
(dp3682
ssI1355
(dp3683
I1391
(dp3684
ssI1356
(dp3685
I1409
(dp3686
sI1410
(dp3687
ssI1359
(dp3688
I1365
(dp3689
ssI1360
(dp3690
I1432
(dp3691
sI1433
(dp3692
sI1431
(dp3693
ssI1363
(dp3694
I1366
(dp3695
ssI1364
(dp3696
I1572
(dp3697
ssI1365
(dp3698
I1653
(dp3699
ssI1366
(dp3700
I1466
(dp3701
sI1467
(dp3702
sI1468
(dp3703
ssI1369
(dp3704
I1376
(dp3705
sI1377
(dp3706
sI1378
(dp3707
sI1375
(dp3708
ssI1370
(dp3709
I1410
(dp3710
sI1411
(dp3711
ssI1375
(dp3712
I1600
(dp3713
sI1599
(dp3714
ssI1376
(dp3715
I1395
(dp3716
sI1396
(dp3717
ssI1377
(dp3718
I1397
(dp3719
ssI1378
(dp3720
I1680
(dp3721
sI1679
(dp3722
ssI1389
(dp3723
I1457
(dp3724
sI1458
(dp3725
ssI1390
(dp3726
I1458
(dp3727
ssI1391
(dp3728
I1769
(dp3729
ssI1395
(dp3730
I1401
(dp3731
ssI1396
(dp3732
I1504
(dp3733
sI1505
(dp3734
sI1506
(dp3735
sI1507
(dp3736
sI1503
(dp3737
ssI1397
(dp3738
I1416
(dp3739
sI1417
(dp3740
sI1418
(dp3741
ssI1400
(dp3742
I1622
(dp3743
sI1623
(dp3744
ssI1401
(dp3745
I1576
(dp3746
sI1577
(dp3747
sI1578
(dp3748
ssI1409
(dp3749
I1427
(dp3750
sI1428
(dp3751
sI1429
(dp3752
ssI1410
(dp3753
I1425
(dp3754
sI1426
(dp3755
sI1427
(dp3756
ssI1411
(dp3757
I1468
(dp3758
ssI1414
(dp3759
I1592
(dp3760
sI1593
(dp3761
ssI1415
(dp3762
I1546
(dp3763
sI1547
(dp3764
ssI1416
(dp3765
I1467
(dp3766
ssI1417
(dp3767
I1520
(dp3768
sI1521
(dp3769
sI1522
(dp3770
sI1523
(dp3771
sI1519
(dp3772
ssI1418
(dp3773
I1446
(dp3774
sI1447
(dp3775
ssI1425
(dp3776
I1800
(dp3777
sI1799
(dp3778
ssI1426
(dp3779
I1952
(dp3780
sI1950
(dp3781
sI1951
(dp3782
ssI1427
(dp3783
I1568
(dp3784
sI1569
(dp3785
ssI1428
(dp3786
I1839
(dp3787
ssI1429
(dp3788
I1448
(dp3789
sI1449
(dp3790
ssI1430
(dp3791
I1576
(dp3792
sI1577
(dp3793
sI1578
(dp3794
ssI1431
(dp3795
I2191
(dp3796
ssI1432
(dp3797
I1453
(dp3798
ssI1433
(dp3799
I1452
(dp3800
sI1453
(dp3801
ssI1434
(dp3802
I1560
(dp3803
ssI1435
(dp3804
I1449
(dp3805
sI1450
(dp3806
ssI1436
(dp3807
I1450
(dp3808
sI1451
(dp3809
ssI1437
(dp3810
I1496
(dp3811
sI1497
(dp3812
sI1498
(dp3813
sI1499
(dp3814
sI1495
(dp3815
ssI1446
(dp3816
I1731
(dp3817
sI1732
(dp3818
ssI1447
(dp3819
I1499
(dp3820
sI1500
(dp3821
sI1501
(dp3822
sI1502
(dp3823
sI1503
(dp3824
ssI1448
(dp3825
I1472
(dp3826
sI1471
(dp3827
ssI1449
(dp3828
I1560
(dp3829
ssI1450
(dp3830
I1729
(dp3831
ssI1451
(dp3832
I1476
(dp3833
sI1477
(dp3834
ssI1452
(dp3835
I1523
(dp3836
sI1524
(dp3837
sI1525
(dp3838
sI1526
(dp3839
sI1527
(dp3840
ssI1453
(dp3841
sI1457
(dp3842
I1581
(dp3843
sI1582
(dp3844
sI1583
(dp3845
ssI1458
(dp3846
I1477
(dp3847
sI1478
(dp3848
ssI1461
(dp3849
I1507
(dp3850
sI1508
(dp3851
sI1509
(dp3852
sI1510
(dp3853
sI1511
(dp3854
ssI1462
(dp3855
I1885
(dp3856
ssI1466
(dp3857
I1945
(dp3858
sI1946
(dp3859
ssI1467
(dp3860
I2197
(dp3861
sI2198
(dp3862
ssI1468
(dp3863
I1783
(dp3864
sI1784
(dp3865
sI1785
(dp3866
sI1786
(dp3867
sI1787
(dp3868
sI1788
(dp3869
ssI1471
(dp3870
I1560
(dp3871
sI1559
(dp3872
ssI1472
(dp3873
I2156
(dp3874
sI2157
(dp3875
sI2158
(dp3876
sI2159
(dp3877
sI2160
(dp3878
sI2161
(dp3879
ssI1476
(dp3880
I1736
(dp3881
sI1737
(dp3882
ssI1477
(dp3883
I1658
(dp3884
sI1659
(dp3885
sI1660
(dp3886
sI1661
(dp3887
ssI1478
(dp3888
I1538
(dp3889
ssI1479
(dp3890
I1888
(dp3891
sI1889
(dp3892
ssI1487
(dp3893
I2099
(dp3894
ssI1488
(dp3895
I1559
(dp3896
ssI1489
(dp3897
I1770
(dp3898
ssI1490
(dp3899
I1750
(dp3900
sI1751
(dp3901
ssI1491
(dp3902
I2094
(dp3903
ssI1492
(dp3904
sI1493
(dp3905
I1658
(dp3906
sI1659
(dp3907
sI1660
(dp3908
sI1661
(dp3909
ssI1494
(dp3910
I1588
(dp3911
sI1589
(dp3912
ssI1495
(dp3913
I1620
(dp3914
sI1621
(dp3915
ssI1496
(dp3916
I1547
(dp3917
sI1548
(dp3918
ssI1497
(dp3919
I1878
(dp3920
sI1879
(dp3921
ssI1498
(dp3922
I1769
(dp3923
ssI1499
(dp3924
I1559
(dp3925
ssI1500
(dp3926
I1754
(dp3927
sI1755
(dp3928
ssI1501
(dp3929
I1696
(dp3930
sI1697
(dp3931
ssI1502
(dp3932
I1672
(dp3933
sI1673
(dp3934
ssI1503
(dp3935
I1716
(dp3936
sI1717
(dp3937
ssI1504
(dp3938
sI1505
(dp3939
I1701
(dp3940
sI1702
(dp3941
ssI1506
(dp3942
I2060
(dp3943
ssI1507
(dp3944
I1548
(dp3945
sI1549
(dp3946
ssI1508
(dp3947
I1592
(dp3948
sI1593
(dp3949
ssI1509
(dp3950
I1658
(dp3951
sI1659
(dp3952
sI1660
(dp3953
sI1661
(dp3954
ssI1510
(dp3955
I1849
(dp3956
sI1850
(dp3957
ssI1511
(dp3958
I1545
(dp3959
sI1549
(dp3960
ssI1512
(dp3961
I1638
(dp3962
sI1639
(dp3963
ssI1513
(dp3964
I1969
(dp3965
ssI1514
(dp3966
I1652
(dp3967
sI1653
(dp3968
ssI1515
(dp3969
I1904
(dp3970
sI1905
(dp3971
ssI1518
(dp3972
I1528
(dp3973
sI1529
(dp3974
sI1530
(dp3975
sI1531
(dp3976
sI1527
(dp3977
ssI1519
(dp3978
I1683
(dp3979
sI1684
(dp3980
ssI1520
(dp3981
I1559
(dp3982
ssI1521
(dp3983
I1646
(dp3984
sI1647
(dp3985
ssI1522
(dp3986
I1568
(dp3987
sI1567
(dp3988
ssI1523
(dp3989
I1689
(dp3990
sI1690
(dp3991
ssI1524
(dp3992
I1570
(dp3993
sI1571
(dp3994
ssI1525
(dp3995
I1560
(dp3996
ssI1526
(dp3997
I1571
(dp3998
sI1572
(dp3999
ssI1527
(dp4000
I1584
(dp4001
sI1585
(dp4002
sI1583
(dp4003
ssI1528
(dp4004
I1799
(dp4005
ssI1529
(dp4006
I1559
(dp4007
ssI1530
(dp4008
I1605
(dp4009
sI1606
(dp4010
ssI1531
(dp4011
I1537
(dp4012
ssI1532
(dp4013
I1536
(dp4014
sI1537
(dp4015
sI1538
(dp4016
sI1539
(dp4017
ssI1535
(dp4018
I1539
(dp4019
ssI1536
(dp4020
I1628
(dp4021
sI1629
(dp4022
ssI1537
(dp4023
I2033
(dp4024
sI2034
(dp4025
ssI1538
(dp4026
I1643
(dp4027
ssI1539
(dp4028
I1690
(dp4029
ssI1540
(dp4030
I1545
(dp4031
sI1546
(dp4032
ssI1545
(dp4033
I1629
(dp4034
ssI1546
(dp4035
I1608
(dp4036
sI1607
(dp4037
ssI1547
(dp4038
I2026
(dp4039
sI2027
(dp4040
sI2028
(dp4041
sI2029
(dp4042
ssI1548
(dp4043
I1800
(dp4044
ssI1549
(dp4045
I1838
(dp4046
ssI1559
(dp4047
I1769
(dp4048
ssI1560
(dp4049
I1608
(dp4050
sI1609
(dp4051
ssI1563
(dp4052
I1569
(dp4053
sI1570
(dp4054
ssI1567
(dp4055
I2069
(dp4056
sI2070
(dp4057
ssI1568
(dp4058
I1816
(dp4059
sI1815
(dp4060
ssI1569
(dp4061
I1971
(dp4062
ssI1570
(dp4063
I1731
(dp4064
ssI1571
(dp4065
I1598
(dp4066
ssI1572
(dp4067
I1792
(dp4068
sI1793
(dp4069
sI1788
(dp4070
sI1789
(dp4071
sI1790
(dp4072
sI1791
(dp4073
ssI1575
(dp4074
I1576
(dp4075
sI1577
(dp4076
sI1578
(dp4077
ssI1576
(dp4078
I1976
(dp4079
sI1977
(dp4080
ssI1577
(dp4081
I1969
(dp4082
ssI1578
(dp4083
I1621
(dp4084
sI1622
(dp4085
ssI1581
(dp4086
I1589
(dp4087
ssI1582
(dp4088
I1878
(dp4089
ssI1583
(dp4090
I1675
(dp4091
ssI1584
(dp4092
I2369
(dp4093
sI2363
(dp4094
ssI1585
(dp4095
I1952
(dp4096
sI1950
(dp4097
sI1951
(dp4098
ssI1588
(dp4099
I1642
(dp4100
sI1643
(dp4101
ssI1589
(dp4102
I1773
(dp4103
sI1774
(dp4104
ssI1592
(dp4105
I1774
(dp4106
ssI1593
(dp4107
I1678
(dp4108
sI1679
(dp4109
ssI1595
(dp4110
I1598
(dp4111
sI1599
(dp4112
ssI1598
(dp4113
I1637
(dp4114
sI1638
(dp4115
ssI1599
(dp4116
I1619
(dp4117
sI1620
(dp4118
ssI1600
(dp4119
I1651
(dp4120
sI1652
(dp4121
ssI1605
(dp4122
I1688
(dp4123
sI1689
(dp4124
ssI1606
(dp4125
I1770
(dp4126
ssI1607
(dp4127
I1769
(dp4128
sI1770
(dp4129
ssI1608
(dp4130
I1617
(dp4131
sI1618
(dp4132
ssI1609
(dp4133
I1698
(dp4134
sI1695
(dp4135
ssI1611
(dp4136
I1618
(dp4137
sI1619
(dp4138
ssI1616
(dp4139
I1617
(dp4140
sI1623
(dp4141
ssI1617
(dp4142
I2114
(dp4143
ssI1618
(dp4144
I1635
(dp4145
sI1636
(dp4146
ssI1619
(dp4147
I1743
(dp4148
ssI1620
(dp4149
I1639
(dp4150
ssI1621
(dp4151
I2093
(dp4152
sI2094
(dp4153
sI2095
(dp4154
ssI1622
(dp4155
I1670
(dp4156
sI1671
(dp4157
ssI1623
(dp4158
I1826
(dp4159
sI1827
(dp4160
sI1828
(dp4161
sI1829
(dp4162
sI1830
(dp4163
ssI1627
(dp4164
I1749
(dp4165
sI1750
(dp4166
ssI1628
(dp4167
I1770
(dp4168
ssI1629
(dp4169
I1705
(dp4170
sI1706
(dp4171
sI1707
(dp4172
sI1708
(dp4173
sI1709
(dp4174
ssI1631
(dp4175
I1636
(dp4176
sI1637
(dp4177
ssI1635
(dp4178
I2345
(dp4179
ssI1636
(dp4180
I2245
(dp4181
sI2246
(dp4182
ssI1637
(dp4183
I1932
(dp4184
sI1933
(dp4185
ssI1638
(dp4186
I1995
(dp4187
sI1996
(dp4188
ssI1639
(dp4189
sI1642
(dp4190
I1672
(dp4191
sI1671
(dp4192
ssI1643
(dp4193
I2057
(dp4194
sI2058
(dp4195
ssI1646
(dp4196
I1741
(dp4197
sI1742
(dp4198
ssI1647
(dp4199
I2159
(dp4200
ssI1651
(dp4201
I1732
(dp4202
sI1733
(dp4203
ssI1652
(dp4204
I1844
(dp4205
sI1845
(dp4206
sI1846
(dp4207
ssI1653
(dp4208
I1820
(dp4209
ssI1657
(dp4210
I1658
(dp4211
sI1659
(dp4212
sI1660
(dp4213
sI1661
(dp4214
ssI1658
(dp4215
I1896
(dp4216
sI1894
(dp4217
sI1895
(dp4218
ssI1659
(dp4219
I1879
(dp4220
ssI1660
(dp4221
I1755
(dp4222
ssI1661
(dp4223
I1702
(dp4224
ssI1662
(dp4225
I1669
(dp4226
sI1670
(dp4227
ssI1666
(dp4228
I1673
(dp4229
sI1674
(dp4230
ssI1667
(dp4231
I1674
(dp4232
sI1675
(dp4233
ssI1669
(dp4234
I1866
(dp4235
sI1867
(dp4236
ssI1670
(dp4237
I1729
(dp4238
sI1730
(dp4239
ssI1671
(dp4240
I2157
(dp4241
ssI1672
(dp4242
I1696
(dp4243
sI1695
(dp4244
ssI1673
(dp4245
I1861
(dp4246
sI1870
(dp4247
ssI1674
(dp4248
I1712
(dp4249
sI1713
(dp4250
sI1709
(dp4251
sI1710
(dp4252
sI1711
(dp4253
ssI1675
(dp4254
I1684
(dp4255
ssI1678
(dp4256
I1816
(dp4257
sI1815
(dp4258
ssI1679
(dp4259
I1769
(dp4260
ssI1680
(dp4261
I1976
(dp4262
sI1977
(dp4263
ssI1683
(dp4264
I1730
(dp4265
ssI1684
(dp4266
I2009
(dp4267
sI2010
(dp4268
sI2011
(dp4269
sI2012
(dp4270
ssI1688
(dp4271
I1717
(dp4272
ssI1689
(dp4273
I1997
(dp4274
sI1998
(dp4275
ssI1690
(dp4276
I2099
(dp4277
sI2100
(dp4278
ssI1693
(dp4279
I1697
(dp4280
sI1698
(dp4281
ssI1695
(dp4282
I2012
(dp4283
sI2013
(dp4284
sI2014
(dp4285
sI2015
(dp4286
ssI1696
(dp4287
I2113
(dp4288
ssI1697
(dp4289
I1981
(dp4290
sI1982
(dp4291
ssI1698
(dp4292
I1905
(dp4293
sI1906
(dp4294
ssI1701
(dp4295
I2066
(dp4296
ssI1702
(dp4297
I1830
(dp4298
ssI1705
(dp4299
I1808
(dp4300
sI1807
(dp4301
ssI1706
(dp4302
I2293
(dp4303
ssI1707
(dp4304
I1748
(dp4305
sI1751
(dp4306
ssI1708
(dp4307
I2033
(dp4308
sI2035
(dp4309
ssI1709
(dp4310
I1769
(dp4311
ssI1710
(dp4312
I2517
(dp4313
sI2518
(dp4314
ssI1711
(dp4315
I1879
(dp4316
ssI1712
(dp4317
I1904
(dp4318
ssI1713
(dp4319
sI1716
(dp4320
I2208
(dp4321
sI2205
(dp4322
sI2206
(dp4323
sI2207
(dp4324
ssI1717
(dp4325
I1811
(dp4326
sI1812
(dp4327
ssI1718
(dp4328
I1729
(dp4329
ssI1722
(dp4330
I1730
(dp4331
sI1731
(dp4332
ssI1727
(dp4333
I1733
(dp4334
ssI1728
(dp4335
I1733
(dp4336
ssI1729
(dp4337
I1945
(dp4338
ssI1730
(dp4339
I1867
(dp4340
sI1868
(dp4341
ssI1731
(dp4342
I1840
(dp4343
sI1836
(dp4344
sI1837
(dp4345
sI1838
(dp4346
sI1839
(dp4347
ssI1732
(dp4348
I1748
(dp4349
sI1749
(dp4350
ssI1733
(dp4351
I1878
(dp4352
ssI1736
(dp4353
I2169
(dp4354
sI2170
(dp4355
sI2171
(dp4356
ssI1737
(dp4357
I1906
(dp4358
sI1907
(dp4359
ssI1739
(dp4360
I1742
(dp4361
sI1743
(dp4362
ssI1741
(dp4363
I1778
(dp4364
sI1779
(dp4365
sI1780
(dp4366
sI1781
(dp4367
sI1782
(dp4368
sI1783
(dp4369
ssI1742
(dp4370
I1803
(dp4371
sI1804
(dp4372
ssI1743
(dp4373
I1971
(dp4374
sI1972
(dp4375
ssI1748
(dp4376
I1988
(dp4377
ssI1749
(dp4378
I2284
(dp4379
ssI1750
(dp4380
sI1751
(dp4381
I1969
(dp4382
ssI1754
(dp4383
I1770
(dp4384
ssI1755
(dp4385
I2345
(dp4386
ssI1759
(dp4387
I1769
(dp4388
ssI1769
(dp4389
I1808
(dp4390
ssI1770
(dp4391
I1803
(dp4392
sI1804
(dp4393
ssI1773
(dp4394
I1945
(dp4395
ssI1774
(dp4396
I1827
(dp4397
ssI1778
(dp4398
I2384
(dp4399
sI2383
(dp4400
ssI1779
(dp4401
I1878
(dp4402
ssI1780
(dp4403
I1879
(dp4404
ssI1781
(dp4405
I1811
(dp4406
sI1812
(dp4407
ssI1782
(dp4408
I1840
(dp4409
ssI1783
(dp4410
I2008
(dp4411
sI2009
(dp4412
sI2006
(dp4413
sI2007
(dp4414
ssI1784
(dp4415
sI1785
(dp4416
I1819
(dp4417
sI1820
(dp4418
ssI1786
(dp4419
I1932
(dp4420
sI1933
(dp4421
ssI1787
(dp4422
I1913
(dp4423
sI1914
(dp4424
sI1915
(dp4425
sI1916
(dp4426
sI1917
(dp4427
ssI1788
(dp4428
I1850
(dp4429
ssI1789
(dp4430
I1800
(dp4431
ssI1790
(dp4432
I1846
(dp4433
ssI1791
(dp4434
I1998
(dp4435
ssI1792
(dp4436
sI1793
(dp4437
sI1799
(dp4438
I1946
(dp4439
ssI1800
(dp4440
I1973
(dp4441
ssI1803
(dp4442
I1829
(dp4443
ssI1804
(dp4444
I2110
(dp4445
ssI1807
(dp4446
I2081
(dp4447
ssI1808
(dp4448
I2019
(dp4449
sI2020
(dp4450
sI2021
(dp4451
ssI1811
(dp4452
I1908
(dp4453
sI1909
(dp4454
ssI1812
(dp4455
I1989
(dp4456
ssI1815
(dp4457
I1920
(dp4458
sI1921
(dp4459
sI1917
(dp4460
sI1918
(dp4461
sI1919
(dp4462
ssI1816
(dp4463
I2232
(dp4464
sI2233
(dp4465
sI2234
(dp4466
sI2235
(dp4467
sI2236
(dp4468
ssI1819
(dp4469
I2346
(dp4470
ssI1820
(dp4471
I1837
(dp4472
ssI1823
(dp4473
I1828
(dp4474
ssI1826
(dp4475
I2134
(dp4476
ssI1827
(dp4477
I2080
(dp4478
sI2081
(dp4479
ssI1828
(dp4480
I1936
(dp4481
sI1937
(dp4482
ssI1829
(dp4483
I1861
(dp4484
sI1862
(dp4485
ssI1830
(dp4486
I2505
(dp4487
ssI1836
(dp4488
I2051
(dp4489
sI2052
(dp4490
ssI1837
(dp4491
sI1838
(dp4492
I1972
(dp4493
sI1973
(dp4494
ssI1839
(dp4495
I1970
(dp4496
ssI1840
(dp4497
I1865
(dp4498
sI1866
(dp4499
ssI1842
(dp4500
I1845
(dp4501
ssI1844
(dp4502
I1884
(dp4503
sI1885
(dp4504
ssI1845
(dp4505
sI1846
(dp4506
I1862
(dp4507
sI1863
(dp4508
ssI1849
(dp4509
I2021
(dp4510
ssI1850
(dp4511
I2133
(dp4512
sI2134
(dp4513
ssI1853
(dp4514
I1864
(dp4515
sI1863
(dp4516
ssI1854
(dp4517
I1864
(dp4518
sI1865
(dp4519
ssI1858
(dp4520
I1868
(dp4521
sI1869
(dp4522
ssI1859
(dp4523
I1869
(dp4524
sI1870
(dp4525
ssI1861
(dp4526
I2048
(dp4527
sI2046
(dp4528
sI2047
(dp4529
ssI1862
(dp4530
I2448
(dp4531
sI2447
(dp4532
ssI1863
(dp4533
I1928
(dp4534
sI1929
(dp4535
ssI1864
(dp4536
I2437
(dp4537
sI2438
(dp4538
ssI1865
(dp4539
I2421
(dp4540
ssI1866
(dp4541
I1907
(dp4542
sI1908
(dp4543
ssI1867
(dp4544
I2148
(dp4545
sI2149
(dp4546
ssI1868
(dp4547
I2505
(dp4548
ssI1869
(dp4549
I2487
(dp4550
ssI1870
(dp4551
I2064
(dp4552
sI2065
(dp4553
ssI1878
(dp4554
I2290
(dp4555
ssI1879
(dp4556
I1987
(dp4557
sI1988
(dp4558
sI1989
(dp4559
sI1990
(dp4560
ssI1880
(dp4561
I1883
(dp4562
sI1884
(dp4563
ssI1883
(dp4564
I2313
(dp4565
ssI1884
(dp4566
I1969
(dp4567
sI1970
(dp4568
ssI1885
(dp4569
I1889
(dp4570
ssI1888
(dp4571
I2052
(dp4572
ssI1889
(dp4573
I1945
(dp4574
ssI1892
(dp4575
I1972
(dp4576
ssI1893
(dp4577
I1909
(dp4578
ssI1894
(dp4579
I2353
(dp4580
sI2354
(dp4581
sI2355
(dp4582
ssI1895
(dp4583
I1921
(dp4584
sI1922
(dp4585
sI1923
(dp4586
sI1924
(dp4587
sI1925
(dp4588
ssI1896
(dp4589
I2251
(dp4590
sI2252
(dp4591
sI2253
(dp4592
ssI1904
(dp4593
I2218
(dp4594
sI2219
(dp4595
ssI1905
(dp4596
I1980
(dp4597
sI1981
(dp4598
ssI1906
(dp4599
I1973
(dp4600
ssI1907
(dp4601
I1970
(dp4602
ssI1908
(dp4603
I1928
(dp4604
sI1929
(dp4605
ssI1909
(dp4606
I2100
(dp4607
ssI1913
(dp4608
I1973
(dp4609
ssI1914
(dp4610
sI1915
(dp4611
sI1916
(dp4612
I2458
(dp4613
sI2459
(dp4614
sI2460
(dp4615
sI2461
(dp4616
sI2462
(dp4617
ssI1917
(dp4618
I1971
(dp4619
ssI1918
(dp4620
I2081
(dp4621
ssI1919
(dp4622
I2196
(dp4623
sI2197
(dp4624
ssI1920
(dp4625
I2003
(dp4626
sI2004
(dp4627
sI2005
(dp4628
sI2006
(dp4629
ssI1921
(dp4630
I2130
(dp4631
ssI1922
(dp4632
I2020
(dp4633
ssI1923
(dp4634
sI1924
(dp4635
I1972
(dp4636
ssI1925
(dp4637
I2257
(dp4638
sI2258
(dp4639
sI2259
(dp4640
ssI1928
(dp4641
I1936
(dp4642
sI1937
(dp4643
ssI1929
(dp4644
I2181
(dp4645
sI2182
(dp4646
sI2183
(dp4647
ssI1932
(dp4648
sI1933
(dp4649
sI1936
(dp4650
I2112
(dp4651
ssI1937
(dp4652
I2095
(dp4653
ssI1944
(dp4654
I1946
(dp4655
ssI1945
(dp4656
sI1946
(dp4657
sI1948
(dp4658
I1952
(dp4659
sI1950
(dp4660
sI1951
(dp4661
ssI1950
(dp4662
I1970
(dp4663
sI1971
(dp4664
ssI1951
(dp4665
I2026
(dp4666
sI2027
(dp4667
sI2028
(dp4668
sI2029
(dp4669
ssI1952
(dp4670
I2040
(dp4671
sI2038
(dp4672
sI2039
(dp4673
ssI1969
(dp4674
I2034
(dp4675
sI2035
(dp4676
ssI1970
(dp4677
I2141
(dp4678
sI2142
(dp4679
ssI1971
(dp4680
I2058
(dp4681
sI2059
(dp4682
ssI1972
(dp4683
I2522
(dp4684
sI2523
(dp4685
ssI1973
(dp4686
I2266
(dp4687
ssI1976
(dp4688
I1990
(dp4689
ssI1977
(dp4690
I2079
(dp4691
ssI1980
(dp4692
I2130
(dp4693
ssI1981
(dp4694
I2192
(dp4695
sI2191
(dp4696
ssI1982
(dp4697
I2320
(dp4698
sI2321
(dp4699
ssI1987
(dp4700
I2128
(dp4701
ssI1988
(dp4702
I2048
(dp4703
ssI1989
(dp4704
I2158
(dp4705
ssI1990
(dp4706
I2065
(dp4707
sI2066
(dp4708
ssI1992
(dp4709
I1996
(dp4710
sI1997
(dp4711
ssI1995
(dp4712
I2376
(dp4713
ssI1996
(dp4714
I2291
(dp4715
ssI1997
(dp4716
I2138
(dp4717
ssI1998
(dp4718
I2040
(dp4719
sI2041
(dp4720
sI2042
(dp4721
ssI2003
(dp4722
sI2004
(dp4723
sI2005
(dp4724
I2400
(dp4725
sI2401
(dp4726
ssI2006
(dp4727
I2385
(dp4728
sI2386
(dp4729
ssI2007
(dp4730
I2312
(dp4731
sI2313
(dp4732
ssI2008
(dp4733
I2047
(dp4734
ssI2009
(dp4735
I2129
(dp4736
sI2130
(dp4737
ssI2010
(dp4738
I2346
(dp4739
ssI2011
(dp4740
I2079
(dp4741
ssI2012
(dp4742
I2506
(dp4743
ssI2013
(dp4744
I2451
(dp4745
sI2452
(dp4746
ssI2014
(dp4747
sI2015
(dp4748
I2348
(dp4749
sI2349
(dp4750
ssI2019
(dp4751
I2185
(dp4752
sI2186
(dp4753
sI2187
(dp4754
ssI2020
(dp4755
I2147
(dp4756
sI2148
(dp4757
ssI2021
(dp4758
I2059
(dp4759
sI2060
(dp4760
ssI2022
(dp4761
I2026
(dp4762
sI2027
(dp4763
sI2028
(dp4764
sI2029
(dp4765
ssI2023
(dp4766
I2026
(dp4767
sI2027
(dp4768
sI2028
(dp4769
sI2029
(dp4770
ssI2026
(dp4771
I2128
(dp4772
sI2129
(dp4773
ssI2027
(dp4774
sI2028
(dp4775
I2400
(dp4776
sI2399
(dp4777
ssI2029
(dp4778
sI2033
(dp4779
I2087
(dp4780
ssI2034
(dp4781
I2192
(dp4782
ssI2035
(dp4783
sI2038
(dp4784
I2070
(dp4785
sI2071
(dp4786
ssI2039
(dp4787
I2141
(dp4788
sI2142
(dp4789
ssI2040
(dp4790
I2080
(dp4791
sI2079
(dp4792
ssI2041
(dp4793
sI2042
(dp4794
sI2046
(dp4795
I2196
(dp4796
sI2198
(dp4797
ssI2047
(dp4798
I2120
(dp4799
sI2119
(dp4800
ssI2048
(dp4801
I2296
(dp4802
sI2297
(dp4803
ssI2051
(dp4804
I2088
(dp4805
sI2089
(dp4806
sI2086
(dp4807
sI2087
(dp4808
ssI2052
(dp4809
I2321
(dp4810
sI2322
(dp4811
ssI2057
(dp4812
I2523
(dp4813
sI2524
(dp4814
ssI2058
(dp4815
I2088
(dp4816
ssI2059
(dp4817
I2168
(dp4818
sI2169
(dp4819
sI2167
(dp4820
ssI2060
(dp4821
I2202
(dp4822
sI2203
(dp4823
sI2204
(dp4824
sI2205
(dp4825
ssI2064
(dp4826
I2215
(dp4827
ssI2065
(dp4828
I2505
(dp4829
ssI2066
(dp4830
I2465
(dp4831
sI2466
(dp4832
ssI2069
(dp4833
I2323
(dp4834
sI2324
(dp4835
ssI2070
(dp4836
sI2071
(dp4837
I2137
(dp4838
sI2138
(dp4839
ssI2075
(dp4840
I2080
(dp4841
ssI2079
(dp4842
I2112
(dp4843
sI2113
(dp4844
sI2114
(dp4845
sI2115
(dp4846
sI2116
(dp4847
sI2109
(dp4848
sI2110
(dp4849
sI2111
(dp4850
ssI2080
(dp4851
sI2081
(dp4852
I2115
(dp4853
ssI2085
(dp4854
I2089
(dp4855
ssI2086
(dp4856
I2286
(dp4857
ssI2087
(dp4858
I2111
(dp4859
ssI2088
(dp4860
I2288
(dp4861
ssI2089
(dp4862
I2129
(dp4863
ssI2093
(dp4864
I2179
(dp4865
sI2180
(dp4866
sI2181
(dp4867
ssI2094
(dp4868
I2345
(dp4869
sI2346
(dp4870
ssI2095
(dp4871
I2128
(dp4872
ssI2099
(dp4873
sI2100
(dp4874
I2438
(dp4875
sI2439
(dp4876
ssI2108
(dp4877
I2116
(dp4878
ssI2109
(dp4879
I2348
(dp4880
ssI2110
(dp4881
I2324
(dp4882
ssI2111
(dp4883
sI2112
(dp4884
I2353
(dp4885
sI2354
(dp4886
sI2355
(dp4887
ssI2113
(dp4888
I2424
(dp4889
ssI2114
(dp4890
I2120
(dp4891
sI2119
(dp4892
ssI2115
(dp4893
I2322
(dp4894
sI2323
(dp4895
ssI2116
(dp4896
I2368
(dp4897
sI2367
(dp4898
ssI2119
(dp4899
sI2120
(dp4900
I2146
(dp4901
sI2147
(dp4902
ssI2128
(dp4903
I2486
(dp4904
ssI2129
(dp4905
I2472
(dp4906
sI2473
(dp4907
sI2471
(dp4908
ssI2130
(dp4909
I2292
(dp4910
ssI2133
(dp4911
I2413
(dp4912
sI2414
(dp4913
ssI2134
(dp4914
I2214
(dp4915
sI2215
(dp4916
ssI2137
(dp4917
I2310
(dp4918
sI2311
(dp4919
ssI2138
(dp4920
I2451
(dp4921
sI2452
(dp4922
ssI2141
(dp4923
I2165
(dp4924
sI2166
(dp4925
sI2167
(dp4926
ssI2142
(dp4927
I2388
(dp4928
sI2383
(dp4929
ssI2146
(dp4930
I2296
(dp4931
sI2297
(dp4932
ssI2147
(dp4933
I2347
(dp4934
ssI2148
(dp4935
I2283
(dp4936
sI2284
(dp4937
sI2285
(dp4938
sI2286
(dp4939
sI2287
(dp4940
sI2288
(dp4941
sI2289
(dp4942
sI2290
(dp4943
sI2291
(dp4944
sI2292
(dp4945
sI2293
(dp4946
ssI2149
(dp4947
I2160
(dp4948
ssI2155
(dp4949
I2161
(dp4950
ssI2156
(dp4951
I2224
(dp4952
sI2225
(dp4953
sI2226
(dp4954
sI2227
(dp4955
sI2228
(dp4956
ssI2157
(dp4957
sI2158
(dp4958
I2232
(dp4959
sI2228
(dp4960
sI2229
(dp4961
sI2230
(dp4962
sI2231
(dp4963
ssI2159
(dp4964
sI2160
(dp4965
sI2161
(dp4966
I2436
(dp4967
sI2437
(dp4968
ssI2165
(dp4969
I2177
(dp4970
sI2178
(dp4971
sI2179
(dp4972
ssI2166
(dp4973
I2240
(dp4974
sI2236
(dp4975
sI2237
(dp4976
sI2238
(dp4977
sI2239
(dp4978
ssI2167
(dp4979
I2349
(dp4980
ssI2168
(dp4981
I2301
(dp4982
sI2302
(dp4983
ssI2169
(dp4984
I2265
(dp4985
ssI2170
(dp4986
sI2171
(dp4987
sI2175
(dp4988
I2184
(dp4989
sI2185
(dp4990
sI2183
(dp4991
ssI2177
(dp4992
I2328
(dp4993
sI2327
(dp4994
ssI2178
(dp4995
I2312
(dp4996
sI2311
(dp4997
ssI2179
(dp4998
I2219
(dp4999
ssI2180
(dp5000
I2287
(dp5001
ssI2181
(dp5002
I2520
(dp5003
sI2519
(dp5004
ssI2182
(dp5005
I2251
(dp5006
sI2252
(dp5007
sI2253
(dp5008
ssI2183
(dp5009
I2433
(dp5010
sI2434
(dp5011
ssI2184
(dp5012
I2408
(dp5013
sI2409
(dp5014
sI2410
(dp5015
sI2407
(dp5016
ssI2185
(dp5017
sI2186
(dp5018
I2348
(dp5019
ssI2187
(dp5020
sI2191
(dp5021
sI2192
(dp5022
I2208
(dp5023
sI2209
(dp5024
sI2210
(dp5025
sI2211
(dp5026
ssI2196
(dp5027
sI2197
(dp5028
I2366
(dp5029
sI2367
(dp5030
ssI2198
(dp5031
I2270
(dp5032
sI2271
(dp5033
ssI2202
(dp5034
sI2203
(dp5035
I2345
(dp5036
ssI2204
(dp5037
sI2205
(dp5038
sI2206
(dp5039
I2285
(dp5040
ssI2207
(dp5041
I2365
(dp5042
sI2366
(dp5043
ssI2208
(dp5044
I2518
(dp5045
sI2519
(dp5046
ssI2209
(dp5047
sI2210
(dp5048
I2244
(dp5049
sI2245
(dp5050
ssI2211
(dp5051
I2269
(dp5052
sI2270
(dp5053
ssI2214
(dp5054
I2387
(dp5055
sI2388
(dp5056
ssI2215
(dp5057
I2257
(dp5058
sI2258
(dp5059
sI2259
(dp5060
ssI2218
(dp5061
sI2219
(dp5062
sI2224
(dp5063
sI2225
(dp5064
I2506
(dp5065
ssI2226
(dp5066
sI2227
(dp5067
sI2228
(dp5068
sI2229
(dp5069
I2251
(dp5070
sI2252
(dp5071
sI2253
(dp5072
ssI2230
(dp5073
I2506
(dp5074
ssI2231
(dp5075
I2257
(dp5076
sI2258
(dp5077
sI2259
(dp5078
ssI2232
(dp5079
sI2233
(dp5080
I2302
(dp5081
sI2303
(dp5082
ssI2234
(dp5083
sI2235
(dp5084
I2246
(dp5085
sI2247
(dp5086
ssI2236
(dp5087
I2353
(dp5088
sI2354
(dp5089
sI2355
(dp5090
ssI2237
(dp5091
I2265
(dp5092
sI2266
(dp5093
ssI2238
(dp5094
I2309
(dp5095
sI2310
(dp5096
ssI2239
(dp5097
I2328
(dp5098
ssI2240
(dp5099
sI2244
(dp5100
sI2245
(dp5101
I2347
(dp5102
sI2348
(dp5103
ssI2246
(dp5104
I2364
(dp5105
sI2365
(dp5106
ssI2247
(dp5107
I2505
(dp5108
sI2506
(dp5109
ssI2251
(dp5110
I2301
(dp5111
sI2303
(dp5112
ssI2252
(dp5113
I2404
(dp5114
sI2405
(dp5115
sI2406
(dp5116
sI2407
(dp5117
ssI2253
(dp5118
I2544
(dp5119
sI2545
(dp5120
ssI2257
(dp5121
I2289
(dp5122
ssI2258
(dp5123
I2414
(dp5124
sI2415
(dp5125
ssI2259
(dp5126
I2392
(dp5127
sI2391
(dp5128
ssI2261
(dp5129
I2265
(dp5130
ssI2263
(dp5131
I2266
(dp5132
ssI2265
(dp5133
sI2266
(dp5134
I2505
(dp5135
ssI2269
(dp5136
I2473
(dp5137
ssI2270
(dp5138
I2376
(dp5139
sI2375
(dp5140
ssI2271
(dp5141
sI2283
(dp5142
sI2284
(dp5143
I2349
(dp5144
ssI2285
(dp5145
sI2286
(dp5146
I2443
(dp5147
sI2444
(dp5148
ssI2287
(dp5149
sI2288
(dp5150
I2505
(dp5151
ssI2289
(dp5152
I2477
(dp5153
sI2478
(dp5154
ssI2290
(dp5155
sI2291
(dp5156
I2375
(dp5157
ssI2292
(dp5158
I2320
(dp5159
ssI2293
(dp5160
I2368
(dp5161
sI2369
(dp5162
ssI2296
(dp5163
sI2297
(dp5164
I2506
(dp5165
ssI2301
(dp5166
sI2302
(dp5167
I2398
(dp5168
sI2399
(dp5169
ssI2303
(dp5170
sI2309
(dp5171
sI2310
(dp5172
sI2311
(dp5173
sI2312
(dp5174
I2505
(dp5175
ssI2313
(dp5176
I2476
(dp5177
sI2477
(dp5178
ssI2320
(dp5179
I2392
(dp5180
sI2391
(dp5181
ssI2321
(dp5182
I2528
(dp5183
sI2527
(dp5184
ssI2322
(dp5185
I2531
(dp5186
sI2532
(dp5187
ssI2323
(dp5188
I2347
(dp5189
ssI2324
(dp5190
I2346
(dp5191
sI2347
(dp5192
ssI2327
(dp5193
sI2328
(dp5194
I2384
(dp5195
sI2385
(dp5196
ssI2344
(dp5197
I2349
(dp5198
ssI2345
(dp5199
sI2346
(dp5200
I2434
(dp5201
sI2435
(dp5202
ssI2347
(dp5203
sI2348
(dp5204
sI2349
(dp5205
sI2353
(dp5206
I2448
(dp5207
ssI2354
(dp5208
sI2355
(dp5209
I2386
(dp5210
sI2387
(dp5211
ssI2356
(dp5212
I2363
(dp5213
sI2364
(dp5214
ssI2363
(dp5215
sI2364
(dp5216
sI2365
(dp5217
I2506
(dp5218
ssI2366
(dp5219
sI2367
(dp5220
sI2368
(dp5221
sI2369
(dp5222
sI2370
(dp5223
I2375
(dp5224
ssI2374
(dp5225
I2376
(dp5226
ssI2375
(dp5227
I2505
(dp5228
ssI2376
(dp5229
I2481
(dp5230
sI2482
(dp5231
ssI2383
(dp5232
sI2384
(dp5233
sI2385
(dp5234
sI2386
(dp5235
sI2387
(dp5236
I2397
(dp5237
sI2398
(dp5238
ssI2388
(dp5239
sI2391
(dp5240
sI2392
(dp5241
sI2397
(dp5242
I2421
(dp5243
sI2422
(dp5244
ssI2398
(dp5245
sI2399
(dp5246
I2506
(dp5247
ssI2400
(dp5248
sI2401
(dp5249
sI2404
(dp5250
sI2405
(dp5251
sI2406
(dp5252
I2506
(dp5253
ssI2407
(dp5254
sI2408
(dp5255
sI2409
(dp5256
I2466
(dp5257
sI2467
(dp5258
ssI2410
(dp5259
I2422
(dp5260
sI2423
(dp5261
ssI2413
(dp5262
sI2414
(dp5263
I2424
(dp5264
sI2423
(dp5265
ssI2415
(dp5266
sI2421
(dp5267
sI2422
(dp5268
sI2423
(dp5269
sI2424
(dp5270
I2486
(dp5271
sI2487
(dp5272
ssI2427
(dp5273
I2435
(dp5274
sI2436
(dp5275
ssI2431
(dp5276
I2440
(dp5277
sI2439
(dp5278
ssI2432
(dp5279
I2440
(dp5280
sI2433
(dp5281
ssI2433
(dp5282
sI2434
(dp5283
sI2435
(dp5284
sI2436
(dp5285
I2505
(dp5286
ssI2437
(dp5287
I2443
(dp5288
sI2444
(dp5289
ssI2438
(dp5290
I2462
(dp5291
ssI2439
(dp5292
sI2440
(dp5293
sI2443
(dp5294
I2544
(dp5295
sI2543
(dp5296
ssI2444
(dp5297
sI2447
(dp5298
sI2448
(dp5299
sI2451
(dp5300
sI2452
(dp5301
sI2454
(dp5302
I2459
(dp5303
ssI2455
(dp5304
I2460
(dp5305
ssI2456
(dp5306
I2461
(dp5307
ssI2458
(dp5308
sI2459
(dp5309
sI2460
(dp5310
sI2461
(dp5311
I2506
(dp5312
ssI2462
(dp5313
sI2465
(dp5314
sI2466
(dp5315
sI2467
(dp5316
sI2469
(dp5317
I2472
(dp5318
ssI2471
(dp5319
I2536
(dp5320
sI2537
(dp5321
sI2538
(dp5322
ssI2472
(dp5323
sI2473
(dp5324
I2520
(dp5325
sI2521
(dp5326
ssI2476
(dp5327
I2482
(dp5328
ssI2477
(dp5329
sI2478
(dp5330
sI2481
(dp5331
sI2482
(dp5332
I2538
(dp5333
ssI2486
(dp5334
sI2487
(dp5335
I2528
(dp5336
sI2527
(dp5337
ssI2505
(dp5338
I2524
(dp5339
sI2516
(dp5340
ssI2506
(dp5341
sI2507
(dp5342
I2516
(dp5343
sI2517
(dp5344
ssI2512
(dp5345
I2521
(dp5346
sI2522
(dp5347
ssI2516
(dp5348
sI2517
(dp5349
I2531
(dp5350
sI2532
(dp5351
ssI2518
(dp5352
sI2519
(dp5353
sI2520
(dp5354
sI2521
(dp5355
sI2522
(dp5356
sI2523
(dp5357
sI2524
(dp5358
I2545
(dp5359
sI2546
(dp5360
ssI2527
(dp5361
sI2528
(dp5362
sI2531
(dp5363
sI2532
(dp5364
sI2534
(dp5365
I2537
(dp5366
ssI2536
(dp5367
I2546
(dp5368
ssI2537
(dp5369
sI2538
(dp5370
sI2543
(dp5371
sI2544
(dp5372
sI2545
(dp5373
sI2546
(dp5374
ssS'edge'
p5375
g1417
sS'pred'
p5376
(dp5377
I1
(dp5378
sI2
(dp5379
sI3
(dp5380
I1
g1419
ssI4
(dp5381
I1
g1420
ssI5
(dp5382
I1
g1421
ssI6
(dp5383
I1
g1422
ssI7
(dp5384
I1
g1423
ssI8
(dp5385
I1
g1424
sI2
g1426
ssI9
(dp5386
I2
g1427
ssI10
(dp5387
I2
g1428
ssI11
(dp5388
I2
g1429
ssI12
(dp5389
I2
g1430
ssI13
(dp5390
I2
g1431
ssI17
(dp5391
I3
g1433
sI13
g1463
ssI18
(dp5392
I8
g1451
sI3
g1434
ssI19
(dp5393
I8
g1452
sI13
g1464
ssI22
(dp5394
I6
g1446
ssI23
(dp5395
I9
g1454
sI6
g1447
ssI24
(dp5396
sI27
(dp5397
I24
g1481
ssI28
(dp5398
I24
g1482
sI18
g1469
ssI29
(dp5399
I24
g1483
sI10
g1456
ssI32
(dp5400
I4
g1436
ssI33
(dp5401
I4
g1437
sI7
g1449
ssI35
(dp5402
sI38
(dp5403
I32
g1496
sI27
g1487
sI35
g1503
sI23
g1478
ssI39
(dp5404
I32
g1497
sI27
g1488
sI35
g1504
sI23
g1479
ssI40
(dp5405
I32
g1494
sI27
g1485
sI35
g1501
sI23
g1476
ssI41
(dp5406
I32
g1495
sI27
g1486
sI35
g1502
sI23
g1477
ssI47
(dp5407
I33
g1499
sI12
g1461
sI22
g1474
ssI48
(dp5408
I41
g1512
sI12
g1460
sI38
g1506
ssI55
(dp5409
I5
g1439
ssI56
(dp5410
I5
g1440
sI47
g1514
ssI57
(dp5411
I28
g1490
sI5
g1441
ssI58
(dp5412
I48
g1516
sI5
g1442
ssI59
(dp5413
I11
g1458
sI5
g1443
ssI60
(dp5414
I40
g1510
sI5
g1444
ssI63
(dp5415
I17
g1467
ssI64
(dp5416
I17
g1466
sI29
g1492
ssI65
(dp5417
sI69
(dp5418
I65
g1539
ssI70
(dp5419
I65
g1540
sI59
g1528
ssI71
(dp5420
I19
g1472
sI59
g1529
ssI72
(dp5421
I56
g1521
sI19
g1471
ssI75
(dp5422
I63
g1534
ssI76
(dp5423
I58
g1526
sI63
g1535
ssI79
(dp5424
I70
g1547
ssI80
(dp5425
I70
g1545
ssI81
(dp5426
I72
g1552
sI70
g1546
ssI82
(dp5427
I72
g1553
ssI83
(dp5428
I72
g1554
ssI85
(dp5429
sI88
(dp5430
I69
g1542
ssI89
(dp5431
I69
g1543
sI85
g1576
ssI90
(dp5432
I85
g1577
sI79
g1561
ssI91
(dp5433
I60
g1531
sI79
g1562
ssI92
(dp5434
I60
g1532
ssI95
(dp5435
I89
g1585
sI55
g1519
ssI96
(dp5436
I89
g1584
sI55
g1518
ssI100
(dp5437
sI104
(dp5438
sI106
(dp5439
sI108
(dp5440
I82
g1570
sI75
g1556
sI95
g1598
ssI109
(dp5441
I81
g1567
sI82
g1571
sI100
g1603
ssI110
(dp5442
I64
g1537
sI57
g1523
sI81
g1568
ssI111
(dp5443
I96
g1601
sI57
g1524
sI104
g1605
ssI112
(dp5444
I96
g1600
sI106
g1607
sI39
g1508
ssI115
(dp5445
I83
g1573
sI76
g1558
ssI116
(dp5446
I83
g1574
sI76
g1559
ssI121
(dp5447
I88
g1579
sI92
g1593
sI116
g1631
sI108
g1609
ssI122
(dp5448
I88
g1580
sI92
g1594
sI116
g1632
sI108
g1610
ssI123
(dp5449
I88
g1581
sI92
g1595
sI116
g1633
sI108
g1611
ssI124
(dp5450
I88
g1582
sI92
g1596
sI116
g1634
sI108
g1612
ssI125
(dp5451
sI128
(dp5452
I122
g1639
sI125
g1647
sI111
g1622
ssI129
(dp5453
I122
g1640
sI125
g1648
sI111
g1623
ssI130
(dp5454
I122
g1641
sI125
g1649
sI111
g1624
ssI134
(dp5455
I80
g1565
sI90
g1587
ssI135
(dp5456
I130
g1658
sI90
g1588
ssI136
(dp5457
I80
g1564
sI130
g1657
ssI140
(dp5458
I129
g1653
ssI141
(dp5459
I136
g1665
sI129
g1654
ssI142
(dp5460
I129
g1655
sI134
g1660
ssI146
(dp5461
I140
g1667
ssI147
(dp5462
I140
g1668
sI135
g1662
ssI148
(dp5463
I123
g1643
sI135
g1663
ssI153
(dp5464
I146
g1675
sI115
g1628
ssI154
(dp5465
I115
g1629
sI110
g1619
ssI155
(dp5466
I128
g1651
sI110
g1620
ssI156
(dp5467
sI158
(dp5468
sI161
(dp5469
I156
g1694
ssI162
(dp5470
I156
g1695
sI71
g1549
ssI163
(dp5471
I158
g1697
sI71
g1550
ssI164
(dp5472
I91
g1590
sI158
g1698
ssI165
(dp5473
I91
g1591
sI141
g1670
ssI169
(dp5474
I154
g1689
sI142
g1672
ssI170
(dp5475
I124
g1645
sI142
g1673
ssI173
(dp5476
I153
g1685
ssI174
(dp5477
I153
g1686
ssI175
(dp5478
I153
g1687
ssI176
(dp5479
I153
g1684
sI109
g1614
ssI177
(dp5480
I109
g1615
ssI178
(dp5481
I109
g1616
ssI179
(dp5482
I109
g1617
ssI182
(dp5483
I121
g1636
sI173
g1725
ssI183
(dp5484
I121
g1637
sI173
g1726
ssI186
(dp5485
I148
g1680
ssI187
(dp5486
I148
g1681
ssI188
(dp5487
I148
g1682
sI165
g1710
ssI189
(dp5488
I165
g1711
ssI190
(dp5489
I165
g1712
ssI192
(dp5490
sI194
(dp5491
sI198
(dp5492
I112
g1626
sI192
g1760
sI186
g1748
sI194
g1762
ssI199
(dp5493
I194
g1763
sI178
g1739
sI182
g1743
sI174
g1728
ssI203
(dp5494
I147
g1677
ssI204
(dp5495
I161
g1700
sI147
g1678
ssI205
(dp5496
I161
g1701
sI183
g1745
ssI206
(dp5497
I183
g1746
ssI210
(dp5498
sI211
(dp5499
sI213
(dp5500
I177
g1736
sI188
g1753
ssI214
(dp5501
I177
g1737
sI175
g1730
ssI215
(dp5502
I210
g1783
sI175
g1731
ssI216
(dp5503
I210
g1782
sI211
g1785
ssI217
(dp5504
I211
g1786
sI204
g1774
ssI220
(dp5505
I190
g1757
sI198
g1765
ssI221
(dp5506
I190
g1758
sI198
g1766
ssI224
(dp5507
I221
g1806
sI213
g1788
ssI225
(dp5508
I221
g1807
sI213
g1789
ssI229
(dp5509
I205
g1776
sI199
g1768
ssI230
(dp5510
I206
g1779
sI199
g1769
ssI231
(dp5511
I205
g1777
sI206
g1780
ssI236
(dp5512
sI237
(dp5513
I214
g1791
ssI238
(dp5514
I229
g1817
sI214
g1792
ssI239
(dp5515
I163
g1706
sI229
g1818
ssI240
(dp5516
I176
g1733
sI163
g1705
ssI241
(dp5517
I176
g1734
sI236
g1828
ssI242
(dp5518
I236
g1829
ssI246
(dp5519
I203
g1771
sI189
g1755
ssI247
(dp5520
I162
g1703
sI203
g1772
ssI249
(dp5521
sI253
(dp5522
I224
g1811
sI169
g1716
sI242
g1848
sI230
g1822
sI249
g1859
ssI254
(dp5523
I224
g1812
sI169
g1717
sI242
g1849
sI230
g1823
sI249
g1860
ssI255
(dp5524
I224
g1813
sI169
g1718
sI242
g1850
sI230
g1824
sI249
g1861
ssI256
(dp5525
I224
g1809
sI169
g1714
sI242
g1846
sI230
g1820
sI249
g1857
ssI257
(dp5526
I224
g1810
sI169
g1715
sI242
g1847
sI230
g1821
sI249
g1858
ssI261
(dp5527
I254
g1866
ssI262
(dp5528
I254
g1867
sI215
g1794
ssI263
(dp5529
I237
g1831
sI254
g1868
ssI265
(dp5530
sI268
(dp5531
I265
g1889
sI170
g1720
sI261
g1878
sI239
g1835
ssI269
(dp5532
I265
g1890
sI170
g1721
sI261
g1879
sI239
g1836
ssI270
(dp5533
I265
g1891
sI170
g1722
sI261
g1880
sI239
g1837
ssI271
(dp5534
I265
g1892
sI170
g1723
sI261
g1881
sI239
g1838
ssI275
(dp5535
I217
g1799
sI269
g1897
sI257
g1874
ssI276
(dp5536
I217
g1800
sI269
g1898
sI257
g1875
ssI277
(dp5537
I217
g1801
sI269
g1899
sI257
g1876
ssI281
(dp5538
I220
g1803
sI253
g1863
ssI282
(dp5539
I241
g1843
sI253
g1864
ssI283
(dp5540
I241
g1844
sI220
g1804
ssI286
(dp5541
sI291
(dp5542
I283
g1916
sI275
g1905
sI246
g1852
sI286
g1919
ssI292
(dp5543
I281
g1912
sI283
g1917
sI270
g1901
sI231
g1826
ssI293
(dp5544
sI297
(dp5545
I293
g1928
ssI298
(dp5546
I164
g1708
sI293
g1929
ssI299
(dp5547
I276
g1907
sI293
g1930
ssI300
(dp5548
I293
g1931
sI238
g1833
ssI306
(dp5549
I225
g1815
sI277
g1909
sI255
g1870
ssI307
(dp5550
I282
g1914
sI298
g1938
sI277
g1910
ssI312
(dp5551
I268
g1894
ssI313
(dp5552
I155
g1691
sI268
g1895
ssI314
(dp5553
I155
g1692
sI300
g1942
ssI315
(dp5554
I179
g1741
sI300
g1943
ssI318
(dp5555
I216
g1796
sI315
g1965
ssI319
(dp5556
I216
g1797
sI315
g1966
ssI324
(dp5557
I312
g1953
sI297
g1933
sI314
g1960
sI307
g1948
ssI325
(dp5558
I312
g1954
sI297
g1934
sI314
g1961
sI307
g1949
ssI326
(dp5559
I312
g1955
sI297
g1935
sI314
g1962
sI307
g1950
ssI327
(dp5560
I312
g1956
sI297
g1936
sI314
g1963
sI307
g1951
ssI331
(dp5561
I263
g1885
sI325
g1976
sI327
g1983
ssI332
(dp5562
I263
g1886
sI325
g1977
sI327
g1984
ssI333
(dp5563
I263
g1887
sI325
g1978
sI327
g1985
ssI336
(dp5564
I306
g1945
sI291
g1921
ssI337
(dp5565
I306
g1946
sI291
g1922
ssI340
(dp5566
I332
g1991
ssI341
(dp5567
I299
g1940
sI332
g1992
ssI345
(dp5568
I240
g1840
sI247
g1854
ssI346
(dp5569
I240
g1841
sI187
g1750
ssI347
(dp5570
I187
g1751
sI247
g1855
ssI348
(dp5571
sI349
(dp5572
sI351
(dp5573
sI353
(dp5574
I348
g2019
sI349
g2021
sI326
g1980
ssI354
(dp5575
I318
g1968
sI326
g1981
sI351
g2023
ssI357
(dp5576
I354
g2027
sI346
g2013
ssI358
(dp5577
I354
g2028
sI346
g2014
ssI361
(dp5578
I319
g1970
ssI362
(dp5579
I353
g2025
sI319
g1971
ssI365
(dp5580
sI366
(dp5581
I361
g2037
ssI367
(dp5582
I361
g2038
ssI368
(dp5583
I361
g2034
ssI369
(dp5584
I361
g2035
ssI370
(dp5585
I361
g2036
sI345
g2007
ssI371
(dp5586
I345
g2008
ssI372
(dp5587
I345
g2009
ssI373
(dp5588
I345
g2010
ssI374
(dp5589
I345
g2011
sI365
g2046
ssI375
(dp5590
I365
g2047
ssI376
(dp5591
I365
g2043
ssI377
(dp5592
I365
g2044
ssI378
(dp5593
I365
g2045
ssI379
(dp5594
sI383
(dp5595
I379
g2084
ssI384
(dp5596
I377
g2078
sI379
g2083
ssI385
(dp5597
I377
g2079
sI374
g2070
ssI386
(dp5598
I369
g2057
sI374
g2071
ssI391
(dp5599
I340
g2002
sI358
g2032
ssI392
(dp5600
I371
g2062
sI340
g2001
ssI393
(dp5601
I371
g2063
sI262
g1883
ssI396
(dp5602
I370
g2059
ssI397
(dp5603
I370
g2060
sI373
g2068
ssI401
(dp5604
I341
g2004
sI383
g2086
ssI402
(dp5605
I337
g1999
sI341
g2005
ssI405
(dp5606
I324
g1973
ssI406
(dp5607
I324
g1974
sI271
g1903
ssI409
(dp5608
I347
g2016
ssI410
(dp5609
I256
g1872
sI347
g2017
ssI411
(dp5610
sI414
(dp5611
I411
g2128
ssI415
(dp5612
I411
g2129
sI406
g2120
ssI416
(dp5613
I384
g2088
sI406
g2119
ssI419
(dp5614
I372
g2065
sI367
g2052
ssI420
(dp5615
I372
g2066
sI367
g2053
ssI423
(dp5616
I386
g2095
sI420
g2143
ssI424
(dp5617
I386
g2094
sI420
g2142
ssI427
(dp5618
sI428
(dp5619
I392
g2100
sI427
g2150
sI292
g1924
ssI429
(dp5620
I392
g2101
sI427
g2151
sI292
g1925
ssI430
(dp5621
I392
g2102
sI427
g2152
sI292
g1926
ssI434
(dp5622
I419
g2138
ssI435
(dp5623
I402
g2114
sI419
g2139
ssI436
(dp5624
I313
g1958
sI419
g2140
ssI437
(dp5625
sI442
(dp5626
I437
g2167
ssI443
(dp5627
I336
g1997
sI437
g2168
ssI444
(dp5628
I429
g2156
sI437
g2169
ssI445
(dp5629
I397
g2109
sI437
g2170
ssI446
(dp5630
I437
g2171
sI414
g2131
ssI450
(dp5631
I393
g2104
sI442
g2173
ssI451
(dp5632
I442
g2174
sI446
g2184
ssI452
(dp5633
I393
g2105
sI446
g2185
ssI456
(dp5634
I401
g2111
sI428
g2154
ssI457
(dp5635
I401
g2112
sI375
g2073
ssI462
(dp5636
I416
g2136
sI445
g2181
ssI463
(dp5637
I456
g2195
sI445
g2182
ssI464
(dp5638
I456
g2194
sI443
g2176
ssI465
(dp5639
I416
g2135
sI443
g2177
ssI468
(dp5640
I366
g2049
sI430
g2158
ssI469
(dp5641
I366
g2050
sI430
g2159
ssI472
(dp5642
I468
g2214
ssI473
(dp5643
I464
g2209
sI468
g2215
ssI474
(dp5644
I464
g2210
ssI478
(dp5645
I474
g2228
sI331
g1988
sI463
g2206
ssI479
(dp5646
I474
g2229
sI331
g1989
sI463
g2207
ssI480
(dp5647
I474
g2227
sI331
g1987
sI463
g2205
ssI494
(dp5648
I368
g2055
sI410
g2125
sI435
g2163
sI415
g2133
sI479
g2234
ssI495
(dp5649
I396
g2107
sI450
g2187
sI451
g2190
sI436
g2165
sI410
g2126
ssI496
(dp5650
I472
g2222
sI465
g2212
sI451
g2189
sI452
g2192
sI423
g2145
ssI500
(dp5651
I405
g2116
ssI501
(dp5652
I376
g2075
sI405
g2117
ssI502
(dp5653
I376
g2076
sI391
g2097
ssI503
(dp5654
I391
g2098
ssI506
(dp5655
I409
g2122
ssI507
(dp5656
I409
g2123
sI462
g2203
ssI515
(dp5657
I506
g2263
ssI516
(dp5658
I506
g2264
sI507
g2266
ssI517
(dp5659
I480
g2236
sI507
g2267
ssI518
(dp5660
I480
g2237
sI494
g2239
ssI519
(dp5661
I362
g2041
sI494
g2240
ssI520
(dp5662
I362
g2040
sI333
g1994
ssI521
(dp5663
I444
g2179
sI333
g1995
ssI524
(dp5664
I478
g2231
sI519
g2286
ssI525
(dp5665
I478
g2232
sI519
g2287
ssI530
(dp5666
I500
g2250
sI518
g2284
ssI531
(dp5667
I500
g2251
sI525
g2302
ssI532
(dp5668
I525
g2303
sI357
g2030
ssI535
(dp5669
I496
g2248
ssI536
(dp5670
I496
g2245
ssI537
(dp5671
I496
g2246
ssI538
(dp5672
I496
g2247
sI469
g2217
ssI539
(dp5673
I469
g2218
ssI540
(dp5674
I469
g2219
ssI541
(dp5675
I469
g2220
ssI542
(dp5676
sI547
(dp5677
I520
g2289
sI516
g2272
sI517
g2278
sI542
g2334
sI501
g2253
ssI548
(dp5678
I520
g2290
sI516
g2273
sI517
g2279
sI542
g2335
sI501
g2254
ssI549
(dp5679
I520
g2291
sI516
g2274
sI517
g2280
sI542
g2336
sI501
g2255
ssI550
(dp5680
I520
g2292
sI516
g2275
sI517
g2281
sI542
g2337
sI501
g2256
ssI551
(dp5681
I520
g2293
sI516
g2276
sI517
g2282
sI542
g2338
sI501
g2257
ssI561
(dp5682
I424
g2147
sI536
g2317
sI538
g2324
ssI562
(dp5683
I424
g2148
sI532
g2311
sI502
g2259
ssI563
(dp5684
I378
g2081
sI532
g2312
sI549
g2345
ssI564
(dp5685
I548
g2343
sI549
g2346
sI503
g2261
ssI569
(dp5686
I541
g2331
sI495
g2242
ssI570
(dp5687
I562
g2357
sI495
g2243
ssI571
(dp5688
I521
g2295
sI562
g2358
ssI572
(dp5689
I521
g2296
sI541
g2332
ssI575
(dp5690
I561
g2355
ssI576
(dp5691
I561
g2354
sI535
g2314
ssI577
(dp5692
I535
g2315
ssI580
(dp5693
I547
g2340
ssI581
(dp5694
I539
g2326
sI547
g2341
ssI585
(dp5695
I576
g2383
ssI586
(dp5696
I576
g2384
ssI587
(dp5697
I576
g2385
sI581
g2394
ssI588
(dp5698
I581
g2395
ssI589
(dp5699
I385
g2090
sI581
g2396
ssI590
(dp5700
I385
g2091
ssI591
(dp5701
I385
g2092
ssI594
(dp5702
I530
g2305
sI575
g2380
ssI595
(dp5703
I530
g2306
sI575
g2381
ssI598
(dp5704
sI599
(dp5705
I563
g2362
sI524
g2300
sI598
g2431
ssI600
(dp5706
I563
g2360
sI524
g2298
sI598
g2429
ssI601
(dp5707
I563
g2361
sI524
g2299
sI598
g2430
ssI604
(dp5708
I531
g2308
sI550
g2348
ssI605
(dp5709
I531
g2309
sI550
g2349
ssI608
(dp5710
I588
g2407
ssI609
(dp5711
I588
g2408
ssI610
(dp5712
I588
g2409
ssI611
(dp5713
I594
g2421
sI588
g2410
ssI612
(dp5714
I594
g2422
ssI613
(dp5715
I594
g2423
ssI614
(dp5716
I594
g2424
ssI617
(dp5717
I586
g2401
sI571
g2374
ssI618
(dp5718
I586
g2402
sI571
g2375
ssI619
(dp5719
sI622
(dp5720
I617
g2475
sI619
g2481
ssI623
(dp5721
I617
g2476
sI434
g2161
ssI629
(dp5722
I515
g2269
ssI630
(dp5723
I585
g2398
sI515
g2270
ssI631
(dp5724
I585
g2399
sI589
g2413
ssI632
(dp5725
I577
g2387
sI589
g2412
ssI633
(dp5726
I577
g2388
sI622
g2483
ssI637
(dp5727
I595
g2426
sI611
g2464
ssI638
(dp5728
I595
g2427
sI572
g2377
ssI639
(dp5729
I611
g2465
sI572
g2378
ssI642
(dp5730
I618
g2478
sI599
g2433
ssI643
(dp5731
I618
g2479
sI599
g2434
ssI646
(dp5732
sI647
(dp5733
I614
g2473
ssI648
(dp5734
I564
g2364
sI614
g2472
ssI649
(dp5735
I564
g2365
sI646
g2512
ssI650
(dp5736
sI653
(dp5737
sI657
(dp5738
I569
g2367
sI650
g2522
sI613
g2470
sI653
g2524
ssI658
(dp5739
I649
g2520
sI610
g2462
sI653
g2525
sI633
g2498
ssI661
(dp5740
I637
g2500
ssI662
(dp5741
I637
g2501
sI629
g2487
ssI663
(dp5742
I629
g2488
ssI668
(dp5743
I537
g2319
sI570
g2369
sI605
g2446
sI601
g2438
ssI669
(dp5744
I537
g2320
sI570
g2370
sI605
g2447
sI601
g2439
ssI670
(dp5745
I537
g2321
sI570
g2371
sI605
g2448
sI601
g2440
ssI671
(dp5746
I537
g2322
sI570
g2372
sI605
g2449
sI601
g2441
ssI677
(dp5747
I591
g2418
ssI678
(dp5748
I612
g2467
sI591
g2419
ssI679
(dp5749
I612
g2468
sI540
g2329
ssI680
(dp5750
I540
g2328
sI551
g2351
ssI681
(dp5751
I604
g2443
sI551
g2352
ssI682
(dp5752
I604
g2444
ssI686
(dp5753
I580
g2391
sI677
g2553
sI679
g2559
ssI687
(dp5754
I580
g2392
sI677
g2554
sI679
g2560
ssI688
(dp5755
I580
g2390
sI677
g2552
sI679
g2558
ssI693
(dp5756
I671
g2549
ssI694
(dp5757
I609
g2459
sI671
g2550
ssI695
(dp5758
I680
g2563
sI609
g2460
ssI696
(dp5759
I600
g2436
sI680
g2562
ssI701
(dp5760
I647
g2515
sI639
g2505
ssI702
(dp5761
I681
g2565
sI639
g2506
ssI703
(dp5762
I681
g2566
sI670
g2547
ssI704
(dp5763
I670
g2546
sI647
g2514
ssI707
(dp5764
I704
g2601
ssI708
(dp5765
I704
g2602
sI703
g2599
ssI714
(dp5766
I457
g2197
ssI715
(dp5767
I457
g2198
sI687
g2574
ssI716
(dp5768
I457
g2199
sI678
g2556
ssI717
(dp5769
I696
g2586
sI457
g2200
ssI718
(dp5770
I457
g2201
sI623
g2485
ssI720
(dp5771
sI723
(dp5772
I701
g2588
sI590
g2415
ssI724
(dp5773
I720
g2622
sI590
g2416
ssI725
(dp5774
I720
g2623
sI587
g2404
ssI726
(dp5775
I587
g2405
sI701
g2589
ssI729
(dp5776
I630
g2490
ssI730
(dp5777
I630
g2491
sI695
g2584
ssI734
(dp5778
I473
g2224
sI693
g2580
ssI735
(dp5779
I473
g2225
sI686
g2572
ssI736
(dp5780
I693
g2579
sI686
g2571
ssI737
(dp5781
sI740
(dp5782
sI742
(dp5783
I737
g2658
sI668
g2539
ssI743
(dp5784
I668
g2540
sI661
g2533
ssI744
(dp5785
I740
g2660
sI661
g2532
ssI745
(dp5786
I740
g2661
sI694
g2582
ssI746
(dp5787
sI759
(dp5788
I643
g2510
sI742
g2663
sI743
g2666
sI746
g2673
sI717
g2618
sI662
g2535
sI638
g2503
ssI760
(dp5789
I642
g2508
sI743
g2665
sI744
g2668
sI715
g2613
sI718
g2620
sI657
g2527
sI724
g2633
ssI770
(dp5790
I736
g2655
ssI771
(dp5791
I736
g2656
sI708
g2607
ssI772
(dp5792
I648
g2517
sI708
g2608
ssI773
(dp5793
I648
g2518
sI631
g2493
ssI774
(dp5794
I726
g2643
sI631
g2494
ssI775
(dp5795
I707
g2605
sI726
g2644
ssI776
(dp5796
I745
g2670
sI707
g2604
ssI777
(dp5797
I745
g2671
sI716
g2615
ssI778
(dp5798
I729
g2646
sI716
g2616
ssI784
(dp5799
I658
g2529
sI663
g2537
ssI785
(dp5800
I658
g2530
sI771
g2688
ssI786
(dp5801
I682
g2568
sI771
g2689
ssI787
(dp5802
I632
g2496
sI682
g2569
ssI790
(dp5803
sI792
(dp5804
I688
g2576
sI773
g2698
ssI793
(dp5805
I770
g2685
sI773
g2699
ssI794
(dp5806
I770
g2686
sI790
g2734
ssI795
(dp5807
I688
g2577
sI790
g2735
ssI803
(dp5808
I608
g2451
sI787
g2726
sI725
g2635
sI723
g2625
sI759
g2675
sI792
g2737
sI702
g2591
ssI804
(dp5809
I608
g2452
sI787
g2727
sI725
g2636
sI723
g2626
sI759
g2676
sI792
g2738
sI702
g2592
ssI805
(dp5810
I608
g2453
sI787
g2728
sI725
g2637
sI723
g2627
sI759
g2677
sI792
g2739
sI702
g2593
ssI806
(dp5811
I608
g2454
sI787
g2729
sI725
g2638
sI723
g2628
sI759
g2678
sI792
g2740
sI702
g2594
ssI807
(dp5812
I608
g2455
sI787
g2730
sI725
g2639
sI723
g2629
sI759
g2679
sI792
g2741
sI702
g2595
ssI808
(dp5813
I608
g2456
sI787
g2731
sI725
g2640
sI723
g2630
sI759
g2680
sI792
g2742
sI702
g2596
ssI809
(dp5814
I608
g2457
sI787
g2732
sI725
g2641
sI723
g2631
sI759
g2681
sI792
g2743
sI702
g2597
ssI812
(dp5815
I805
g2765
ssI813
(dp5816
I777
g2710
sI805
g2766
ssI817
(dp5817
I735
g2652
ssI818
(dp5818
I778
g2712
sI735
g2653
ssI819
(dp5819
I730
g2648
sI778
g2713
ssI822
(dp5820
I809
g2775
sI775
g2704
ssI823
(dp5821
I809
g2776
sI775
g2705
ssI826
(dp5822
I776
g2707
sI807
g2770
ssI827
(dp5823
I776
g2708
sI807
g2771
ssI829
(dp5824
sI830
(dp5825
sI834
(dp5826
sI835
(dp5827
I818
g2785
sI822
g2791
sI829
g2803
sI830
g2805
ssI836
(dp5828
I760
g2683
sI817
g2783
sI818
g2786
sI834
g2807
ssI837
(dp5829
sI840
(dp5830
I837
g2813
ssI841
(dp5831
I837
g2814
sI806
g2768
ssI842
(dp5832
I786
g2724
sI837
g2815
ssI845
(dp5833
sI846
(dp5834
I804
g2762
sI845
g2830
sI823
g2794
ssI847
(dp5835
I804
g2763
sI845
g2831
sI823
g2795
ssI848
(dp5836
I804
g2761
sI845
g2829
sI823
g2793
ssI850
(dp5837
sI852
(dp5838
I846
g2833
ssI853
(dp5839
I850
g2842
sI846
g2834
ssI854
(dp5840
I836
g2811
sI846
g2835
ssI858
(dp5841
sI861
(dp5842
I803
g2757
sI772
g2694
sI842
g2825
sI785
g2720
sI852
g2847
sI858
g2861
ssI862
(dp5843
I803
g2758
sI772
g2695
sI842
g2826
sI785
g2721
sI852
g2848
sI858
g2862
ssI863
(dp5844
I803
g2759
sI772
g2696
sI842
g2827
sI785
g2722
sI852
g2849
sI858
g2863
ssI864
(dp5845
I803
g2754
sI772
g2691
sI842
g2822
sI785
g2717
sI852
g2844
sI858
g2858
ssI865
(dp5846
I803
g2755
sI772
g2692
sI842
g2823
sI785
g2718
sI852
g2845
sI858
g2859
ssI866
(dp5847
I803
g2756
sI772
g2693
sI842
g2824
sI785
g2719
sI852
g2846
sI858
g2860
ssI870
(dp5848
I793
g2746
sI669
g2543
sI854
g2855
ssI871
(dp5849
I793
g2747
sI669
g2544
sI854
g2856
ssI872
(dp5850
I793
g2745
sI669
g2542
sI854
g2854
ssI875
(dp5851
I795
g2751
sI862
g2867
ssI876
(dp5852
I795
g2752
sI862
g2868
ssI879
(dp5853
I865
g2878
sI774
g2702
ssI880
(dp5854
I865
g2877
sI774
g2701
ssI883
(dp5855
I847
g2837
ssI884
(dp5856
I784
g2715
sI847
g2838
ssI888
(dp5857
I879
g2895
sI883
g2901
sI863
g2870
ssI889
(dp5858
I879
g2896
sI883
g2902
sI863
g2871
ssI890
(dp5859
I879
g2897
sI883
g2903
sI863
g2872
ssI893
(dp5860
I714
g2610
ssI894
(dp5861
I714
g2611
sI871
g2885
ssI898
(dp5862
I876
g2893
sI893
g2915
ssI899
(dp5863
I893
g2916
sI894
g2918
ssI900
(dp5864
sI903
(dp5865
I864
g2875
sI900
g2925
ssI904
(dp5866
I864
g2874
sI734
g2650
ssI908
(dp5867
I904
g2930
ssI909
(dp5868
I904
g2931
sI812
g2778
ssI910
(dp5869
I812
g2779
sI884
g2905
ssI911
(dp5870
I884
g2906
ssI914
(dp5871
I911
g2940
ssI915
(dp5872
I911
g2941
ssI916
(dp5873
I826
g2797
sI911
g2942
ssI917
(dp5874
I826
g2798
ssI918
(dp5875
I826
g2799
ssI922
(dp5876
I841
g2819
ssI923
(dp5877
I841
g2820
sI914
g2944
ssI924
(dp5878
I914
g2945
sI819
g2788
ssI925
(dp5879
I819
g2789
ssI929
(dp5880
I875
g2890
sI899
g2922
ssI930
(dp5881
I922
g2960
sI875
g2891
ssI931
(dp5882
I922
g2961
sI899
g2923
ssI935
(dp5883
I903
g2928
ssI936
(dp5884
I872
g2887
sI903
g2927
ssI937
(dp5885
I840
g2817
sI872
g2888
ssI959
(dp5886
I866
g2880
sI935
g2976
sI930
g2971
sI918
g2958
sI794
g2749
sI898
g2920
ssI960
(dp5887
I935
g2975
sI937
g2981
sI848
g2840
sI888
g2908
sI924
g2965
sI925
g2967
ssI961
(dp5888
I835
g2809
sI937
g2982
sI813
g2781
sI910
g2938
sI853
g2851
sI861
g2865
ssI962
(dp5889
I929
g2969
sI931
g2973
sI808
g2773
sI853
g2852
sI890
g2913
sI827
g2801
ssI965
(dp5890
I908
g2933
ssI966
(dp5891
I923
g2963
sI908
g2934
ssI974
(dp5892
I960
g2987
sI961
g2990
sI909
g2936
sI966
g2997
ssI975
(dp5893
I960
g2988
sI880
g2899
sI965
g2995
sI917
g2956
ssI978
(dp5894
I870
g2882
sI959
g2984
ssI979
(dp5895
I870
g2883
sI959
g2985
ssI985
(dp5896
I889
g2910
ssI986
(dp5897
I936
g2978
sI889
g2911
ssI987
(dp5898
I936
g2979
sI974
g2999
ssI988
(dp5899
I916
g2953
sI974
g3000
ssI989
(dp5900
I916
g2954
sI975
g3002
ssI992
(dp5901
I987
g3017
ssI993
(dp5902
I986
g3015
sI987
g3018
ssI996
(dp5903
I962
g2992
sI978
g3004
ssI997
(dp5904
I962
g2993
sI978
g3005
ssI1000
(dp5905
I992
g3028
ssI1001
(dp5906
I992
g3029
sI988
g3020
ssI1004
(dp5907
I997
g3036
ssI1005
(dp5908
I993
g3031
sI997
g3037
ssI1011
(dp5909
I1000
g3039
sI985
g3009
sI915
g2947
sI1004
g3048
sI989
g3022
ssI1012
(dp5910
I1000
g3040
sI985
g3010
sI915
g2948
sI1004
g3049
sI989
g3023
ssI1013
(dp5911
I1000
g3041
sI985
g3011
sI915
g2949
sI1004
g3050
sI989
g3024
ssI1014
(dp5912
I1000
g3042
sI985
g3012
sI915
g2950
sI1004
g3051
sI989
g3025
ssI1015
(dp5913
I1000
g3043
sI985
g3013
sI915
g2951
sI1004
g3052
sI989
g3026
ssI1019
(dp5914
I1001
g3045
sI1014
g3065
ssI1020
(dp5915
I1001
g3046
sI1005
g3054
ssI1021
(dp5916
I1005
g3055
sI1014
g3066
ssI1028
(dp5917
I1015
g3068
ssI1029
(dp5918
I1020
g3073
sI1015
g3069
ssI1030
(dp5919
I1020
g3074
sI1021
g3076
ssI1031
(dp5920
I996
g3034
sI1021
g3077
ssI1032
(dp5921
I1011
g3057
sI996
g3033
ssI1033
(dp5922
I979
g3007
sI1011
g3058
ssI1035
(dp5923
sI1038
(dp5924
I1035
g3098
sI1031
g3092
ssI1039
(dp5925
I1035
g3099
sI1012
g3061
ssI1040
(dp5926
I1012
g3060
sI1028
g3079
ssI1043
(dp5927
I1039
g3103
ssI1044
(dp5928
I1040
g3106
sI1039
g3104
ssI1053
(dp5929
I1030
g3088
ssI1054
(dp5930
I1019
g3071
sI1030
g3089
ssI1055
(dp5931
I1032
g3094
sI1030
g3090
ssI1056
(dp5932
I1033
g3096
sI1030
g3083
ssI1057
(dp5933
I1029
g3081
sI1030
g3084
ssI1058
(dp5934
I1013
g3063
sI1030
g3085
ssI1059
(dp5935
I1038
g3101
sI1030
g3086
ssI1060
(dp5936
I1043
g3108
sI1030
g3087
ssI1063
(dp5937
I1044
g3111
sI1060
g3138
ssI1064
(dp5938
I1044
g3110
sI1060
g3137
ssI1070
(dp5939
I1056
g3126
sI1063
g3140
ssI1071
(dp5940
I1053
g3114
sI1063
g3141
ssI1072
(dp5941
I1053
g3113
sI1055
g3122
ssI1073
(dp5942
I1057
g3128
sI1055
g3123
ssI1074
(dp5943
I1056
g3125
sI1057
g3129
ssI1077
(dp5944
I1058
g3131
sI1071
g3148
ssI1078
(dp5945
I1058
g3132
sI1071
g3149
ssI1080
(dp5946
sI1084
(dp5947
I1078
g3162
ssI1085
(dp5948
I1080
g3165
sI1078
g3163
ssI1086
(dp5949
I1080
g3166
sI1074
g3156
ssI1087
(dp5950
I1074
g3157
sI1059
g3135
ssI1088
(dp5951
I1064
g3143
sI1059
g3134
ssI1090
(dp5952
sI1093
(dp5953
sI1096
(dp5954
I1086
g3174
sI1070
g3145
ssI1097
(dp5955
I1090
g3186
sI1070
g3146
ssI1098
(dp5956
I1090
g3187
sI1085
g3171
ssI1099
(dp5957
I1088
g3183
sI1085
g3172
ssI1100
(dp5958
I1088
g3184
sI1093
g3189
ssI1101
(dp5959
I1072
g3151
sI1093
g3190
ssI1102
(dp5960
I1072
g3152
sI1086
g3175
ssI1105
(dp5961
I1097
g3195
ssI1106
(dp5962
I1097
g3196
sI1098
g3198
ssI1109
(dp5963
I1077
g3159
ssI1110
(dp5964
I1100
g3203
sI1077
g3160
ssI1113
(dp5965
I1099
g3200
sI1101
g3205
ssI1114
(dp5966
I1099
g3201
sI1101
g3206
ssI1120
(dp5967
I1113
g3224
sI1106
g3213
sI1114
g3230
sI1054
g3116
sI1087
g3177
ssI1121
(dp5968
I1113
g3225
sI1106
g3214
sI1114
g3231
sI1054
g3117
sI1087
g3178
ssI1122
(dp5969
I1113
g3226
sI1106
g3215
sI1114
g3232
sI1054
g3118
sI1087
g3179
ssI1123
(dp5970
I1113
g3227
sI1106
g3216
sI1114
g3233
sI1054
g3119
sI1087
g3180
ssI1124
(dp5971
I1113
g3228
sI1106
g3217
sI1114
g3234
sI1054
g3120
sI1087
g3181
ssI1129
(dp5972
I1121
g3239
sI1124
g3249
ssI1130
(dp5973
I1096
g3192
sI1124
g3250
ssI1131
(dp5974
I1096
g3193
sI1102
g3208
ssI1132
(dp5975
I1121
g3240
sI1102
g3209
ssI1135
(dp5976
I1123
g3247
ssI1136
(dp5977
I1123
g3245
ssI1137
(dp5978
I1130
g3255
sI1123
g3246
ssI1138
(dp5979
I1130
g3256
ssI1139
(dp5980
I1130
g3257
ssI1142
(dp5981
I1137
g3269
sI1132
g3261
ssI1143
(dp5982
I1137
g3270
sI1132
g3262
ssI1146
(dp5983
I1084
g3168
ssI1147
(dp5984
I1105
g3211
sI1084
g3169
ssI1148
(dp5985
sI1150
(dp5986
sI1153
(dp5987
I1129
g3252
sI1148
g3294
ssI1154
(dp5988
I1129
g3253
sI1150
g3296
ssI1155
(dp5989
I1120
g3236
sI1150
g3297
ssI1156
(dp5990
I1120
g3237
sI1131
g3259
ssI1160
(dp5991
I1146
g3284
ssI1161
(dp5992
I1146
g3285
sI1139
g3275
ssI1162
(dp5993
I1139
g3276
sI1155
g3306
ssI1165
(dp5994
I1156
g3308
sI1135
g3264
ssI1166
(dp5995
I1156
g3309
sI1135
g3265
ssI1176
(dp5996
I1154
g3303
ssI1177
(dp5997
I1154
g3304
sI1162
g3317
ssI1178
(dp5998
I1162
g3318
sI1143
g3281
ssI1179
(dp5999
I1138
g3272
sI1143
g3282
ssI1180
(dp6000
I1138
g3273
sI1165
g3320
ssI1181
(dp6001
I1165
g3321
sI1110
g3221
ssI1182
(dp6002
I1161
g3314
sI1110
g3222
ssI1183
(dp6003
I1161
g3315
sI1142
g3279
ssI1184
(dp6004
I1073
g3154
sI1142
g3278
ssI1188
(dp6005
I1176
g3325
sI1153
g3299
sI1181
g3340
ssI1189
(dp6006
I1176
g3326
sI1153
g3300
sI1181
g3341
ssI1190
(dp6007
I1176
g3327
sI1153
g3301
sI1181
g3342
ssI1193
(dp6008
I1190
g3359
ssI1194
(dp6009
I1188
g3354
sI1190
g3360
ssI1198
(dp6010
I1179
g3335
ssI1199
(dp6011
I1179
g3336
sI1189
g3357
ssI1200
(dp6012
I1178
g3332
sI1189
g3356
ssI1201
(dp6013
I1178
g3333
ssI1204
(dp6014
I1201
g3383
sI1122
g3242
ssI1205
(dp6015
I1201
g3384
sI1122
g3243
ssI1210
(dp6016
I1182
g3344
ssI1211
(dp6017
I1136
g3267
sI1182
g3345
ssI1212
(dp6018
I1180
g3338
sI1182
g3346
ssI1213
(dp6019
I1109
g3219
sI1182
g3347
ssI1214
(dp6020
sI1215
(dp6021
sI1217
(dp6022
sI1220
(dp6023
I1214
g3407
ssI1221
(dp6024
I1214
g3408
ssI1222
(dp6025
I1214
g3409
ssI1223
(dp6026
I1214
g3410
ssI1224
(dp6027
I1214
g3411
ssI1225
(dp6028
I1214
g3412
sI1215
g3414
ssI1226
(dp6029
I1215
g3415
ssI1227
(dp6030
I1215
g3416
ssI1228
(dp6031
I1215
g3417
ssI1229
(dp6032
I1215
g3418
ssI1230
(dp6033
I1198
g3371
sI1215
g3419
ssI1231
(dp6034
I1198
g3372
ssI1232
(dp6035
I1198
g3373
ssI1233
(dp6036
I1198
g3374
ssI1234
(dp6037
I1198
g3375
ssI1235
(dp6038
I1217
g3421
sI1198
g3376
ssI1236
(dp6039
I1217
g3422
ssI1237
(dp6040
I1217
g3423
ssI1238
(dp6041
I1217
g3424
ssI1239
(dp6042
I1217
g3425
ssI1240
(dp6043
I1193
g3362
sI1217
g3426
ssI1241
(dp6044
I1193
g3363
ssI1242
(dp6045
I1193
g3364
ssI1243
(dp6046
I1193
g3365
ssI1244
(dp6047
I1193
g3366
ssI1245
(dp6048
I1193
g3367
sI1147
g3290
ssI1246
(dp6049
I1147
g3291
ssI1247
(dp6050
I1147
g3292
ssI1248
(dp6051
I1147
g3287
ssI1249
(dp6052
I1147
g3288
ssI1250
(dp6053
I1147
g3289
ssI1253
(dp6054
I1235
g3476
ssI1254
(dp6055
I1200
g3381
sI1235
g3477
ssI1257
(dp6056
sI1258
(dp6057
I1221
g3430
ssI1259
(dp6058
I1221
g3431
ssI1260
(dp6059
I1249
g3514
sI1221
g3432
ssI1261
(dp6060
I1249
g3515
ssI1262
(dp6061
I1249
g3516
sI1257
g3525
ssI1263
(dp6062
I1257
g3526
ssI1264
(dp6063
I1257
g3524
ssI1267
(dp6064
I1264
g3542
ssI1268
(dp6065
I1264
g3543
sI1241
g3494
ssI1271
(dp6066
I1160
g3312
sI1177
g3330
ssI1272
(dp6067
I1160
g3311
sI1177
g3329
ssI1275
(dp6068
I1184
g3351
ssI1276
(dp6069
I1184
g3352
sI1259
g3530
ssI1279
(dp6070
I1199
g3379
ssI1280
(dp6071
I1261
g3535
sI1199
g3378
ssI1285
(dp6072
I1233
g3471
sI1243
g3498
ssI1286
(dp6073
I1233
g3472
sI1275
g3558
ssI1287
(dp6074
I1275
g3559
sI1183
g3349
ssI1291
(dp6075
I1267
g3545
sI1263
g3539
ssI1292
(dp6076
I1267
g3546
sI1246
g3505
ssI1293
(dp6077
I1246
g3506
sI1263
g3540
ssI1296
(dp6078
I1213
g3404
sI1239
g3488
ssI1297
(dp6079
I1213
g3405
sI1239
g3489
ssI1300
(dp6080
sI1301
(dp6081
sI1302
(dp6082
I1247
g3509
ssI1303
(dp6083
I1247
g3510
ssI1304
(dp6084
I1229
g3453
sI1247
g3508
ssI1305
(dp6085
I1229
g3454
ssI1306
(dp6086
I1300
g3592
sI1229
g3455
ssI1307
(dp6087
I1300
g3593
ssI1308
(dp6088
I1300
g3594
sI1301
g3596
ssI1309
(dp6089
I1301
g3597
ssI1310
(dp6090
I1301
g3598
ssI1313
(dp6091
I1280
g3567
ssI1314
(dp6092
I1280
g3568
sI1307
g3613
ssI1315
(dp6093
sI1316
(dp6094
sI1322
(dp6095
I1225
g3442
sI1194
g3369
sI1315
g3628
sI1316
g3630
ssI1323
(dp6096
I1225
g3443
sI1234
g3474
sI1244
g3500
sI1268
g3548
ssI1326
(dp6097
I1227
g3447
sI1212
g3401
ssI1327
(dp6098
I1227
g3448
sI1212
g3402
ssI1333
(dp6099
I1297
g3590
sI1308
g3615
sI1326
g3636
ssI1334
(dp6100
I1224
g3440
sI1250
g3518
sI1326
g3637
ssI1337
(dp6101
I1306
g3610
sI1303
g3602
ssI1338
(dp6102
I1306
g3611
sI1303
g3603
ssI1342
(dp6103
sI1343
(dp6104
sI1344
(dp6105
I1327
g3639
sI1343
g3659
ssI1345
(dp6106
I1271
g3550
sI1327
g3640
ssI1346
(dp6107
I1304
g3605
sI1271
g3551
ssI1347
(dp6108
I1304
g3606
sI1342
g3656
ssI1348
(dp6109
I1342
g3657
sI1343
g3660
ssI1353
(dp6110
I1285
g3570
ssI1354
(dp6111
I1285
g3571
sI1223
g3437
ssI1355
(dp6112
I1337
g3649
sI1223
g3438
ssI1356
(dp6113
I1337
g3650
sI1334
g3647
ssI1359
(dp6114
I1238
g3486
ssI1360
(dp6115
I1296
g3588
sI1238
g3485
ssI1363
(dp6116
sI1364
(dp6117
I1205
g3389
ssI1365
(dp6118
I1205
g3390
sI1359
g3689
ssI1366
(dp6119
I1363
g3695
sI1205
g3391
ssI1369
(dp6120
I1291
g3579
sI1237
g3482
ssI1370
(dp6121
I1291
g3580
sI1237
g3483
ssI1375
(dp6122
I1272
g3556
sI1369
g3708
sI1309
g3620
sI1333
g3645
ssI1376
(dp6123
I1272
g3553
sI1369
g3705
sI1309
g3617
sI1333
g3642
ssI1377
(dp6124
I1272
g3554
sI1369
g3706
sI1309
g3618
sI1333
g3643
ssI1378
(dp6125
I1272
g3555
sI1369
g3707
sI1309
g3619
sI1333
g3644
ssI1389
(dp6126
I1347
g3672
sI1204
g3386
sI1302
g3600
sI1262
g3537
ssI1390
(dp6127
I1248
g3512
sI1204
g3387
sI1222
g3434
sI1254
g3522
ssI1391
(dp6128
I1226
g3445
sI1355
g3684
sI1166
g3323
sI1222
g3435
ssI1395
(dp6129
I1376
g3716
ssI1396
(dp6130
I1240
g3491
sI1376
g3717
ssI1397
(dp6131
I1240
g3492
sI1377
g3719
ssI1400
(dp6132
I1344
g3662
ssI1401
(dp6133
I1344
g3663
sI1395
g3731
ssI1409
(dp6134
I1356
g3686
sI1276
g3561
sI1253
g3520
ssI1410
(dp6135
I1370
g3710
sI1356
g3687
sI1242
g3496
ssI1411
(dp6136
I1314
g3626
sI1323
g3634
sI1370
g3711
ssI1414
(dp6137
I1353
g3678
ssI1415
(dp6138
I1353
g3679
ssI1416
(dp6139
I1353
g3677
sI1397
g3739
ssI1417
(dp6140
I1397
g3740
ssI1418
(dp6141
I1397
g3741
ssI1425
(dp6142
I1410
g3754
ssI1426
(dp6143
I1410
g3755
ssI1427
(dp6144
I1409
g3750
sI1410
g3756
ssI1428
(dp6145
I1409
g3751
ssI1429
(dp6146
I1409
g3752
sI1287
g3575
ssI1430
(dp6147
I1287
g3576
ssI1431
(dp6148
I1360
g3693
sI1287
g3577
ssI1432
(dp6149
I1360
g3691
ssI1433
(dp6150
I1360
g3692
sI1279
g3563
ssI1434
(dp6151
I1279
g3564
ssI1435
(dp6152
I1346
g3668
sI1279
g3565
ssI1436
(dp6153
I1346
g3669
ssI1437
(dp6154
I1346
g3670
ssI1446
(dp6155
I1418
g3774
ssI1447
(dp6156
I1418
g3775
sI1292
g3583
ssI1448
(dp6157
I1292
g3582
sI1429
g3789
ssI1449
(dp6158
I1435
g3805
sI1429
g3790
ssI1450
(dp6159
I1435
g3806
sI1436
g3808
ssI1451
(dp6160
I1345
g3665
sI1436
g3809
ssI1452
(dp6161
I1433
g3800
sI1345
g3666
ssI1453
(dp6162
I1432
g3798
sI1433
g3801
ssI1457
(dp6163
I1389
g3724
sI1286
g3573
ssI1458
(dp6164
I1389
g3725
sI1390
g3727
ssI1461
(dp6165
I1260
g3532
sI1228
g3450
ssI1462
(dp6166
I1260
g3533
sI1228
g3451
ssI1466
(dp6167
I1366
g3701
ssI1467
(dp6168
I1416
g3766
sI1366
g3702
ssI1468
(dp6169
I1411
g3758
sI1366
g3703
ssI1471
(dp6170
I1448
g3827
sI1245
g3503
ssI1472
(dp6171
I1448
g3826
sI1245
g3502
ssI1476
(dp6172
I1451
g3833
ssI1477
(dp6173
I1458
g3847
sI1451
g3834
ssI1478
(dp6174
I1458
g3848
sI1354
g3681
ssI1479
(dp6175
I1354
g3682
ssI1487
(dp6176
I1232
g3469
ssI1488
(dp6177
I1232
g3465
ssI1489
(dp6178
I1232
g3466
ssI1490
(dp6179
I1232
g3467
ssI1491
(dp6180
I1232
g3468
sI1231
g3459
ssI1492
(dp6181
I1231
g3460
ssI1493
(dp6182
I1231
g3461
ssI1494
(dp6183
I1231
g3462
ssI1495
(dp6184
I1437
g3815
sI1231
g3463
ssI1496
(dp6185
I1437
g3811
ssI1497
(dp6186
I1437
g3812
ssI1498
(dp6187
I1437
g3813
ssI1499
(dp6188
I1437
g3814
sI1447
g3820
ssI1500
(dp6189
I1447
g3821
ssI1501
(dp6190
I1447
g3822
ssI1502
(dp6191
I1447
g3823
ssI1503
(dp6192
I1396
g3737
sI1447
g3824
ssI1504
(dp6193
I1396
g3733
ssI1505
(dp6194
I1396
g3734
ssI1506
(dp6195
I1396
g3735
ssI1507
(dp6196
I1396
g3736
sI1461
g3850
ssI1508
(dp6197
I1461
g3851
ssI1509
(dp6198
I1461
g3852
ssI1510
(dp6199
I1461
g3853
ssI1511
(dp6200
I1210
g3397
sI1461
g3854
ssI1512
(dp6201
I1210
g3393
ssI1513
(dp6202
I1210
g3394
ssI1514
(dp6203
I1210
g3395
ssI1515
(dp6204
I1210
g3396
ssI1518
(dp6205
sI1519
(dp6206
I1417
g3772
ssI1520
(dp6207
I1417
g3768
ssI1521
(dp6208
I1417
g3769
ssI1522
(dp6209
I1417
g3770
ssI1523
(dp6210
I1417
g3771
sI1452
g3836
ssI1524
(dp6211
I1452
g3837
ssI1525
(dp6212
I1452
g3838
ssI1526
(dp6213
I1452
g3839
ssI1527
(dp6214
I1452
g3840
sI1518
g3977
ssI1528
(dp6215
I1518
g3973
ssI1529
(dp6216
I1518
g3974
ssI1530
(dp6217
I1518
g3975
ssI1531
(dp6218
I1518
g3976
ssI1532
(dp6219
sI1535
(dp6220
sI1536
(dp6221
I1532
g4014
ssI1537
(dp6222
I1531
g4012
sI1532
g4015
ssI1538
(dp6223
I1532
g4016
sI1478
g3889
ssI1539
(dp6224
I1532
g4017
sI1535
g4019
ssI1540
(dp6225
sI1545
(dp6226
I1540
g4031
sI1511
g3959
ssI1546
(dp6227
I1540
g4032
sI1415
g3763
ssI1547
(dp6228
I1496
g3917
sI1415
g3764
ssI1548
(dp6229
I1496
g3918
sI1507
g3945
ssI1549
(dp6230
I1507
g3946
sI1511
g3960
ssI1559
(dp6231
I1488
g3896
sI1529
g4007
sI1499
g3925
sI1520
g3982
sI1471
g3872
ssI1560
(dp6232
I1449
g3829
sI1434
g3803
sI1471
g3871
sI1322
g3632
sI1525
g3996
ssI1563
(dp6233
sI1567
(dp6234
I1522
g3988
ssI1568
(dp6235
I1522
g3987
sI1427
g3784
ssI1569
(dp6236
I1563
g4053
sI1427
g3785
ssI1570
(dp6237
I1563
g4054
sI1524
g3993
ssI1571
(dp6238
I1524
g3994
sI1526
g3998
ssI1572
(dp6239
I1364
g3697
sI1526
g3999
ssI1575
(dp6240
sI1576
(dp6241
I1401
g3746
sI1430
g3792
sI1575
g4075
ssI1577
(dp6242
I1401
g3747
sI1430
g3793
sI1575
g4076
ssI1578
(dp6243
I1401
g3748
sI1430
g3794
sI1575
g4077
ssI1581
(dp6244
I1457
g3843
ssI1582
(dp6245
I1457
g3844
ssI1583
(dp6246
I1457
g3845
sI1527
g4003
ssI1584
(dp6247
I1527
g4001
ssI1585
(dp6248
I1527
g4002
ssI1588
(dp6249
I1494
g3911
ssI1589
(dp6250
I1581
g4087
sI1494
g3912
ssI1592
(dp6251
I1508
g3948
sI1414
g3760
ssI1593
(dp6252
I1508
g3949
sI1414
g3761
ssI1595
(dp6253
sI1598
(dp6254
I1571
g4066
sI1595
g4111
ssI1599
(dp6255
I1595
g4112
sI1375
g3714
ssI1600
(dp6256
I1310
g3622
sI1375
g3713
ssI1605
(dp6257
I1530
g4009
ssI1606
(dp6258
I1530
g4010
sI1348
g3674
ssI1607
(dp6259
I1546
g4037
sI1348
g3675
ssI1608
(dp6260
I1560
g4050
sI1546
g4036
ssI1609
(dp6261
I1560
g4051
ssI1611
(dp6262
sI1616
(dp6263
sI1617
(dp6264
I1608
g4131
sI1616
g4140
ssI1618
(dp6265
I1608
g4132
sI1611
g4137
ssI1619
(dp6266
I1611
g4138
sI1599
g4117
ssI1620
(dp6267
I1495
g3914
sI1599
g4118
ssI1621
(dp6268
I1578
g4084
sI1495
g3915
ssI1622
(dp6269
I1400
g3743
sI1578
g4085
ssI1623
(dp6270
I1400
g3744
sI1616
g4141
ssI1627
(dp6271
I1236
g3479
ssI1628
(dp6272
I1536
g4021
sI1236
g3480
ssI1629
(dp6273
I1536
g4022
sI1545
g4034
ssI1631
(dp6274
sI1635
(dp6275
I1618
g4145
ssI1636
(dp6276
I1618
g4146
sI1631
g4176
ssI1637
(dp6277
I1598
g4114
sI1631
g4177
ssI1638
(dp6278
I1512
g3962
sI1598
g4115
ssI1639
(dp6279
I1512
g3963
sI1620
g4150
ssI1642
(dp6280
I1588
g4100
ssI1643
(dp6281
I1538
g4027
sI1588
g4101
ssI1646
(dp6282
I1521
g3984
ssI1647
(dp6283
I1521
g3985
sI1313
g3624
ssI1651
(dp6284
I1600
g4120
ssI1652
(dp6285
I1600
g4121
sI1514
g3967
ssI1653
(dp6286
I1514
g3968
sI1365
g3699
ssI1657
(dp6287
sI1658
(dp6288
I1657
g4211
sI1493
g3906
sI1477
g3884
sI1509
g3951
ssI1659
(dp6289
I1657
g4212
sI1493
g3907
sI1477
g3885
sI1509
g3952
ssI1660
(dp6290
I1657
g4213
sI1493
g3908
sI1477
g3886
sI1509
g3953
ssI1661
(dp6291
I1657
g4214
sI1493
g3909
sI1477
g3887
sI1509
g3954
ssI1662
(dp6292
sI1666
(dp6293
sI1667
(dp6294
sI1669
(dp6295
I1662
g4226
ssI1670
(dp6296
I1622
g4156
sI1662
g4227
ssI1671
(dp6297
I1642
g4192
sI1622
g4157
ssI1672
(dp6298
I1642
g4191
sI1502
g3933
ssI1673
(dp6299
I1666
g4229
sI1502
g3934
ssI1674
(dp6300
I1666
g4230
sI1667
g4232
ssI1675
(dp6301
I1667
g4233
sI1583
g4091
ssI1678
(dp6302
I1593
g4108
ssI1679
(dp6303
I1593
g4109
sI1378
g3722
ssI1680
(dp6304
I1378
g3721
ssI1683
(dp6305
I1519
g3979
ssI1684
(dp6306
I1675
g4255
sI1519
g3980
ssI1688
(dp6307
I1605
g4123
ssI1689
(dp6308
I1523
g3990
sI1605
g4124
ssI1690
(dp6309
I1539
g4029
sI1523
g3991
ssI1693
(dp6310
sI1695
(dp6311
I1672
g4244
sI1609
g4135
ssI1696
(dp6312
I1672
g4243
sI1501
g3930
ssI1697
(dp6313
I1501
g3931
sI1693
g4280
ssI1698
(dp6314
I1609
g4134
sI1693
g4281
ssI1701
(dp6315
I1505
g3940
ssI1702
(dp6316
I1505
g3941
sI1661
g4224
ssI1705
(dp6317
I1629
g4170
ssI1706
(dp6318
I1629
g4171
ssI1707
(dp6319
I1629
g4172
ssI1708
(dp6320
I1629
g4173
ssI1709
(dp6321
I1674
g4251
sI1629
g4174
ssI1710
(dp6322
I1674
g4252
ssI1711
(dp6323
I1674
g4253
ssI1712
(dp6324
I1674
g4249
ssI1713
(dp6325
I1674
g4250
ssI1716
(dp6326
I1503
g3936
ssI1717
(dp6327
I1688
g4272
sI1503
g3937
ssI1718
(dp6328
sI1722
(dp6329
sI1727
(dp6330
sI1728
(dp6331
sI1729
(dp6332
I1450
g3831
sI1670
g4238
sI1718
g4329
ssI1730
(dp6333
I1722
g4331
sI1683
g4265
sI1670
g4239
ssI1731
(dp6334
I1570
g4064
sI1722
g4332
sI1446
g3817
ssI1732
(dp6335
I1651
g4202
sI1220
g3428
sI1446
g3818
ssI1733
(dp6336
I1728
g4336
sI1651
g4203
sI1727
g4334
ssI1736
(dp6337
I1476
g3881
sI1293
g3585
ssI1737
(dp6338
I1476
g3882
sI1293
g3586
ssI1739
(dp6339
sI1741
(dp6340
I1646
g4197
ssI1742
(dp6341
I1739
g4361
sI1646
g4198
ssI1743
(dp6342
I1619
g4148
sI1739
g4362
ssI1748
(dp6343
I1707
g4305
sI1732
g4349
ssI1749
(dp6344
I1627
g4165
sI1732
g4350
ssI1750
(dp6345
I1490
g3900
sI1627
g4166
ssI1751
(dp6346
I1490
g3901
sI1707
g4306
ssI1754
(dp6347
I1500
g3927
ssI1755
(dp6348
I1500
g3928
sI1660
g4222
ssI1759
(dp6349
sI1769
(dp6350
I1607
g4128
sI1709
g4311
sI1391
g3729
sI1559
g4048
sI1498
g3923
sI1679
g4260
sI1759
g4388
ssI1770
(dp6351
I1606
g4126
sI1607
g4129
sI1230
g3457
sI1489
g3898
sI1754
g4384
sI1211
g3399
sI1628
g4168
ssI1773
(dp6352
I1589
g4103
ssI1774
(dp6353
I1592
g4106
sI1589
g4104
ssI1778
(dp6354
I1741
g4364
ssI1779
(dp6355
I1741
g4365
ssI1780
(dp6356
I1741
g4366
ssI1781
(dp6357
I1741
g4367
ssI1782
(dp6358
I1741
g4368
ssI1783
(dp6359
I1468
g3864
sI1741
g4369
ssI1784
(dp6360
I1468
g3865
ssI1785
(dp6361
I1468
g3866
ssI1786
(dp6362
I1468
g3867
ssI1787
(dp6363
I1468
g3868
ssI1788
(dp6364
I1572
g4070
sI1468
g3869
ssI1789
(dp6365
I1572
g4071
ssI1790
(dp6366
I1572
g4072
ssI1791
(dp6367
I1572
g4073
ssI1792
(dp6368
I1572
g4068
ssI1793
(dp6369
I1572
g4069
ssI1799
(dp6370
I1528
g4005
sI1305
g3608
sI1425
g3778
ssI1800
(dp6371
I1425
g3777
sI1548
g4044
sI1789
g4431
ssI1803
(dp6372
I1770
g4392
sI1742
g4371
ssI1804
(dp6373
I1770
g4393
sI1742
g4372
ssI1807
(dp6374
I1705
g4301
ssI1808
(dp6375
I1769
g4390
sI1705
g4300
ssI1811
(dp6376
I1717
g4326
sI1781
g4406
ssI1812
(dp6377
I1717
g4327
sI1781
g4407
ssI1815
(dp6378
I1568
g4060
sI1678
g4258
ssI1816
(dp6379
I1568
g4059
sI1678
g4257
ssI1819
(dp6380
I1785
g4417
ssI1820
(dp6381
I1785
g4418
sI1653
g4209
ssI1823
(dp6382
sI1826
(dp6383
I1623
g4159
ssI1827
(dp6384
I1774
g4397
sI1623
g4160
ssI1828
(dp6385
I1623
g4161
sI1823
g4474
ssI1829
(dp6386
I1803
g4443
sI1623
g4162
ssI1830
(dp6387
I1702
g4298
sI1623
g4163
ssI1836
(dp6388
I1731
g4344
ssI1837
(dp6389
I1731
g4345
sI1820
g4472
ssI1838
(dp6390
I1731
g4346
sI1549
g4046
ssI1839
(dp6391
I1731
g4347
sI1428
g3787
ssI1840
(dp6392
I1731
g4343
sI1782
g4409
ssI1842
(dp6393
sI1844
(dp6394
I1652
g4205
ssI1845
(dp6395
I1842
g4501
sI1652
g4206
ssI1846
(dp6396
I1652
g4207
sI1790
g4433
ssI1849
(dp6397
I1510
g3956
ssI1850
(dp6398
I1788
g4429
sI1510
g3957
ssI1853
(dp6399
sI1854
(dp6400
sI1858
(dp6401
sI1859
(dp6402
sI1861
(dp6403
I1673
g4246
sI1829
g4484
ssI1862
(dp6404
I1829
g4485
sI1846
g4507
ssI1863
(dp6405
I1853
g4516
sI1846
g4508
ssI1864
(dp6406
I1853
g4515
sI1854
g4518
ssI1865
(dp6407
I1840
g4498
sI1854
g4519
ssI1866
(dp6408
I1840
g4499
sI1669
g4235
ssI1867
(dp6409
I1730
g4340
sI1669
g4236
ssI1868
(dp6410
I1730
g4341
sI1858
g4521
ssI1869
(dp6411
I1858
g4522
sI1859
g4524
ssI1870
(dp6412
I1673
g4247
sI1859
g4525
ssI1878
(dp6413
I1497
g3920
sI1779
g4402
sI1733
g4352
sI1582
g4089
ssI1879
(dp6414
I1497
g3921
sI1659
g4220
sI1780
g4404
sI1711
g4316
ssI1880
(dp6415
sI1883
(dp6416
I1880
g4562
ssI1884
(dp6417
I1880
g4563
sI1844
g4503
ssI1885
(dp6418
I1844
g4504
sI1462
g3856
ssI1888
(dp6419
I1479
g3891
ssI1889
(dp6420
I1885
g4570
sI1479
g3892
ssI1892
(dp6421
I1338
g3652
ssI1893
(dp6422
I1338
g3653
ssI1894
(dp6423
I1658
g4217
sI1338
g3654
ssI1895
(dp6424
I1658
g4218
ssI1896
(dp6425
I1658
g4216
ssI1904
(dp6426
I1712
g4318
sI1515
g3970
ssI1905
(dp6427
I1698
g4293
sI1515
g3971
ssI1906
(dp6428
I1737
g4358
sI1698
g4294
ssI1907
(dp6429
I1737
g4359
sI1866
g4542
ssI1908
(dp6430
I1866
g4543
sI1811
g4453
ssI1909
(dp6431
I1811
g4454
sI1893
g4578
ssI1913
(dp6432
I1787
g4423
ssI1914
(dp6433
I1787
g4424
ssI1915
(dp6434
I1787
g4425
ssI1916
(dp6435
I1787
g4426
ssI1917
(dp6436
I1787
g4427
sI1815
g4460
ssI1918
(dp6437
I1815
g4461
ssI1919
(dp6438
I1815
g4462
ssI1920
(dp6439
I1815
g4458
ssI1921
(dp6440
I1815
g4459
sI1895
g4584
ssI1922
(dp6441
I1895
g4585
ssI1923
(dp6442
I1895
g4586
ssI1924
(dp6443
I1895
g4587
ssI1925
(dp6444
I1895
g4588
ssI1928
(dp6445
I1908
g4604
sI1863
g4534
ssI1929
(dp6446
I1908
g4605
sI1863
g4535
ssI1932
(dp6447
I1786
g4420
sI1637
g4184
ssI1933
(dp6448
I1786
g4421
sI1637
g4185
ssI1936
(dp6449
I1928
g4642
sI1828
g4481
ssI1937
(dp6450
I1928
g4643
sI1828
g4482
ssI1944
(dp6451
sI1945
(dp6452
I1889
g4574
sI1466
g3858
sI1773
g4395
sI1729
g4338
ssI1946
(dp6453
I1944
g4655
sI1466
g3859
sI1258
g3528
sI1799
g4439
ssI1948
(dp6454
sI1950
(dp6455
I1585
g4097
sI1426
g3781
sI1948
g4660
ssI1951
(dp6456
I1585
g4098
sI1426
g3782
sI1948
g4661
ssI1952
(dp6457
I1585
g4096
sI1426
g3780
sI1948
g4659
ssI1969
(dp6458
I1577
g4082
sI1751
g4382
sI1884
g4567
sI1513
g3965
ssI1970
(dp6459
I1907
g4602
sI1884
g4568
sI1950
g4663
sI1839
g4496
ssI1971
(dp6460
I1569
g4062
sI1917
g4619
sI1950
g4664
sI1743
g4374
ssI1972
(dp6461
I1892
g4576
sI1924
g4636
sI1838
g4493
sI1743
g4375
ssI1973
(dp6462
I1800
g4441
sI1913
g4609
sI1906
g4600
sI1838
g4494
ssI1976
(dp6463
I1576
g4079
sI1680
g4262
ssI1977
(dp6464
I1576
g4080
sI1680
g4263
ssI1980
(dp6465
I1905
g4597
ssI1981
(dp6466
I1905
g4598
sI1697
g4290
ssI1982
(dp6467
I1697
g4291
ssI1987
(dp6468
I1879
g4557
ssI1988
(dp6469
I1748
g4377
sI1879
g4558
ssI1989
(dp6470
I1812
g4456
sI1879
g4559
ssI1990
(dp6471
I1976
g4689
sI1879
g4560
ssI1992
(dp6472
sI1995
(dp6473
I1638
g4187
ssI1996
(dp6474
I1992
g4710
sI1638
g4188
ssI1997
(dp6475
I1992
g4711
sI1689
g4274
ssI1998
(dp6476
I1689
g4275
sI1791
g4435
ssI2003
(dp6477
I1920
g4626
ssI2004
(dp6478
I1920
g4627
ssI2005
(dp6479
I1920
g4628
ssI2006
(dp6480
I1920
g4629
sI1783
g4413
ssI2007
(dp6481
I1783
g4414
ssI2008
(dp6482
I1783
g4411
ssI2009
(dp6483
I1684
g4267
sI1783
g4412
ssI2010
(dp6484
I1684
g4268
ssI2011
(dp6485
I1684
g4269
ssI2012
(dp6486
I1684
g4270
sI1695
g4283
ssI2013
(dp6487
I1695
g4284
ssI2014
(dp6488
I1695
g4285
ssI2015
(dp6489
I1695
g4286
ssI2019
(dp6490
I1808
g4449
ssI2020
(dp6491
I1808
g4450
sI1922
g4633
ssI2021
(dp6492
I1808
g4451
sI1849
g4510
ssI2022
(dp6493
sI2023
(dp6494
sI2026
(dp6495
I1547
g4039
sI1951
g4666
sI2022
g4762
sI2023
g4767
ssI2027
(dp6496
I1547
g4040
sI1951
g4667
sI2022
g4763
sI2023
g4768
ssI2028
(dp6497
I1547
g4041
sI1951
g4668
sI2022
g4764
sI2023
g4769
ssI2029
(dp6498
I1547
g4042
sI1951
g4669
sI2022
g4765
sI2023
g4770
ssI2033
(dp6499
I1537
g4024
sI1708
g4308
ssI2034
(dp6500
I1969
g4675
sI1537
g4025
ssI2035
(dp6501
I1969
g4676
sI1708
g4309
ssI2038
(dp6502
I1952
g4672
ssI2039
(dp6503
I1952
g4673
ssI2040
(dp6504
I1952
g4671
sI1998
g4719
ssI2041
(dp6505
I1998
g4720
ssI2042
(dp6506
I1998
g4721
ssI2046
(dp6507
I1861
g4528
ssI2047
(dp6508
I2008
g4734
sI1861
g4529
ssI2048
(dp6509
I1988
g4703
sI1861
g4527
ssI2051
(dp6510
I1836
g4489
ssI2052
(dp6511
I1888
g4572
sI1836
g4490
ssI2057
(dp6512
I1643
g4194
ssI2058
(dp6513
I1643
g4195
sI1971
g4681
ssI2059
(dp6514
I1971
g4682
sI2021
g4759
ssI2060
(dp6515
I1506
g3943
sI2021
g4760
ssI2064
(dp6516
I1870
g4552
ssI2065
(dp6517
I1990
g4707
sI1870
g4553
ssI2066
(dp6518
I1701
g4296
sI1990
g4708
ssI2069
(dp6519
I1567
g4056
ssI2070
(dp6520
I2038
g4785
sI1567
g4057
ssI2071
(dp6521
I2038
g4786
ssI2075
(dp6522
sI2079
(dp6523
I2040
g4792
sI1977
g4691
sI2011
g4741
ssI2080
(dp6524
I2040
g4791
sI1827
g4478
sI2075
g4841
ssI2081
(dp6525
I1827
g4479
sI1918
g4621
sI1807
g4447
ssI2085
(dp6526
sI2086
(dp6527
I2051
g4807
ssI2087
(dp6528
I2033
g4780
sI2051
g4808
ssI2088
(dp6529
I2058
g4816
sI2051
g4805
ssI2089
(dp6530
I2051
g4806
sI2085
g4855
ssI2093
(dp6531
I1621
g4152
ssI2094
(dp6532
I1491
g3903
sI1621
g4153
ssI2095
(dp6533
I1937
g4653
sI1621
g4154
ssI2099
(dp6534
I1690
g4277
sI1487
g3894
ssI2100
(dp6535
I1690
g4278
sI1909
g4607
ssI2108
(dp6536
sI2109
(dp6537
I2079
g4848
ssI2110
(dp6538
I1804
g4445
sI2079
g4849
ssI2111
(dp6539
I2079
g4850
sI2087
g4859
ssI2112
(dp6540
I1936
g4651
sI2079
g4843
ssI2113
(dp6541
I1696
g4288
sI2079
g4844
ssI2114
(dp6542
I1617
g4143
sI2079
g4845
ssI2115
(dp6543
I2081
g4853
sI2079
g4846
ssI2116
(dp6544
I2108
g4878
sI2079
g4847
ssI2119
(dp6545
I2114
g4892
sI2047
g4800
ssI2120
(dp6546
I2114
g4891
sI2047
g4799
ssI2128
(dp6547
I2026
g4772
sI1987
g4701
sI2095
g4872
ssI2129
(dp6548
I2009
g4736
sI2026
g4773
sI2089
g4863
ssI2130
(dp6549
I2009
g4737
sI1980
g4693
sI1921
g4631
ssI2133
(dp6550
I1850
g4512
ssI2134
(dp6551
I1826
g4476
sI1850
g4513
ssI2137
(dp6552
I2071
g4838
ssI2138
(dp6553
I1997
g4717
sI2071
g4839
ssI2141
(dp6554
I1970
g4678
sI2039
g4788
ssI2142
(dp6555
I1970
g4679
sI2039
g4789
ssI2146
(dp6556
I2120
g4901
ssI2147
(dp6557
I2120
g4902
sI2020
g4756
ssI2148
(dp6558
I1867
g4545
sI2020
g4757
ssI2149
(dp6559
I1867
g4546
ssI2155
(dp6560
sI2156
(dp6561
I1472
g3874
ssI2157
(dp6562
I1472
g3875
sI1671
g4241
ssI2158
(dp6563
I1472
g3876
sI1989
g4705
ssI2159
(dp6564
I1472
g3877
sI1647
g4200
ssI2160
(dp6565
I1472
g3878
sI2149
g4948
ssI2161
(dp6566
I1472
g3879
sI2155
g4950
ssI2165
(dp6567
I2141
g4924
ssI2166
(dp6568
I2141
g4925
ssI2167
(dp6569
I2059
g4820
sI2141
g4926
ssI2168
(dp6570
I2059
g4818
ssI2169
(dp6571
I1736
g4354
sI2059
g4819
ssI2170
(dp6572
I1736
g4355
ssI2171
(dp6573
I1736
g4356
ssI2175
(dp6574
sI2177
(dp6575
I2165
g4970
ssI2178
(dp6576
I2165
g4971
ssI2179
(dp6577
I2165
g4972
sI2093
g4865
ssI2180
(dp6578
I2093
g4866
ssI2181
(dp6579
I1929
g4645
sI2093
g4867
ssI2182
(dp6580
I1929
g4646
ssI2183
(dp6581
I1929
g4647
sI2175
g4991
ssI2184
(dp6582
I2175
g4989
ssI2185
(dp6583
I2019
g4752
sI2175
g4990
ssI2186
(dp6584
I2019
g4753
ssI2187
(dp6585
I2019
g4754
ssI2191
(dp6586
I1981
g4696
sI1431
g3796
ssI2192
(dp6587
I2034
g4782
sI1981
g4695
ssI2196
(dp6588
I2046
g4796
sI1919
g4623
ssI2197
(dp6589
I1467
g3861
sI1919
g4624
ssI2198
(dp6590
I1467
g3862
sI2046
g4797
ssI2202
(dp6591
I2060
g4822
ssI2203
(dp6592
I2060
g4823
ssI2204
(dp6593
I2060
g4824
ssI2205
(dp6594
I1716
g4322
sI2060
g4825
ssI2206
(dp6595
I1716
g4323
ssI2207
(dp6596
I1716
g4324
ssI2208
(dp6597
I2192
g5023
sI1716
g4321
ssI2209
(dp6598
I2192
g5024
ssI2210
(dp6599
I2192
g5025
ssI2211
(dp6600
I2192
g5026
ssI2214
(dp6601
I2134
g4915
ssI2215
(dp6602
I2064
g4827
sI2134
g4916
ssI2218
(dp6603
I1904
g4594
ssI2219
(dp6604
I1904
g4595
sI2179
g4999
ssI2224
(dp6605
I2156
g4952
ssI2225
(dp6606
I2156
g4953
ssI2226
(dp6607
I2156
g4954
ssI2227
(dp6608
I2156
g4955
ssI2228
(dp6609
I2156
g4956
sI2158
g4960
ssI2229
(dp6610
I2158
g4961
ssI2230
(dp6611
I2158
g4962
ssI2231
(dp6612
I2158
g4963
ssI2232
(dp6613
I1816
g4464
sI2158
g4959
ssI2233
(dp6614
I1816
g4465
ssI2234
(dp6615
I1816
g4466
ssI2235
(dp6616
I1816
g4467
ssI2236
(dp6617
I1816
g4468
sI2166
g4975
ssI2237
(dp6618
I2166
g4976
ssI2238
(dp6619
I2166
g4977
ssI2239
(dp6620
I2166
g4978
ssI2240
(dp6621
I2166
g4974
ssI2244
(dp6622
I2210
g5049
ssI2245
(dp6623
I2210
g5050
sI1636
g4181
ssI2246
(dp6624
I2235
g5085
sI1636
g4182
ssI2247
(dp6625
I2235
g5086
ssI2251
(dp6626
I1896
g4590
sI2229
g5070
sI2182
g5006
ssI2252
(dp6627
I1896
g4591
sI2229
g5071
sI2182
g5007
ssI2253
(dp6628
I1896
g4592
sI2229
g5072
sI2182
g5008
ssI2257
(dp6629
I2231
g5076
sI1925
g4638
sI2215
g5058
ssI2258
(dp6630
I2231
g5077
sI1925
g4639
sI2215
g5059
ssI2259
(dp6631
I2231
g5078
sI1925
g4640
sI2215
g5060
ssI2261
(dp6632
sI2263
(dp6633
sI2265
(dp6634
I2169
g4985
sI2237
g5092
sI2261
g5130
ssI2266
(dp6635
I2237
g5093
sI1973
g4687
sI2263
g5132
ssI2269
(dp6636
I2211
g5052
ssI2270
(dp6637
I2211
g5053
sI2198
g5032
ssI2271
(dp6638
I2198
g5033
ssI2283
(dp6639
I2148
g4936
ssI2284
(dp6640
I2148
g4937
sI1749
g4379
ssI2285
(dp6641
I2148
g4938
sI2206
g5040
ssI2286
(dp6642
I2148
g4939
sI2086
g4857
ssI2287
(dp6643
I2180
g5001
sI2148
g4940
ssI2288
(dp6644
I2088
g4861
sI2148
g4941
ssI2289
(dp6645
I2257
g5122
sI2148
g4942
ssI2290
(dp6646
I2148
g4943
sI1878
g4555
ssI2291
(dp6647
I2148
g4944
sI1996
g4715
ssI2292
(dp6648
I2130
g4910
sI2148
g4945
ssI2293
(dp6649
I1706
g4303
sI2148
g4946
ssI2296
(dp6650
I2048
g4802
sI2146
g4931
ssI2297
(dp6651
I2048
g4803
sI2146
g4932
ssI2301
(dp6652
I2168
g4982
sI2251
g5111
ssI2302
(dp6653
I2168
g4983
sI2233
g5081
ssI2303
(dp6654
I2233
g5082
sI2251
g5112
ssI2309
(dp6655
I2238
g5095
ssI2310
(dp6656
I2137
g4918
sI2238
g5096
ssI2311
(dp6657
I2137
g4919
sI2178
g4997
ssI2312
(dp6658
I2178
g4996
sI2007
g4731
ssI2313
(dp6659
I1883
g4565
sI2007
g4732
ssI2320
(dp6660
I2292
g5159
sI1982
g4698
ssI2321
(dp6661
I2052
g4810
sI1982
g4699
ssI2322
(dp6662
I2115
g4894
sI2052
g4811
ssI2323
(dp6663
I2115
g4895
sI2069
g4834
ssI2324
(dp6664
I2069
g4835
sI2110
g4882
ssI2327
(dp6665
I2177
g4994
ssI2328
(dp6666
I2177
g4993
sI2239
g5098
ssI2344
(dp6667
sI2345
(dp6668
I1635
g4179
sI1755
g4386
sI2203
g5036
sI2094
g4869
ssI2346
(dp6669
I2010
g4739
sI1819
g4470
sI2324
g5191
sI2094
g4870
ssI2347
(dp6670
I2323
g5189
sI2147
g4934
sI2324
g5192
sI2245
g5102
ssI2348
(dp6671
I2186
g5019
sI2015
g4749
sI2245
g5103
sI2109
g4880
ssI2349
(dp6672
I2344
g5198
sI2167
g4980
sI2284
g5144
sI2015
g4750
ssI2353
(dp6673
I2112
g4885
sI2236
g5088
sI1894
g4580
ssI2354
(dp6674
I2112
g4886
sI2236
g5089
sI1894
g4581
ssI2355
(dp6675
I2112
g4887
sI2236
g5090
sI1894
g4582
ssI2356
(dp6676
sI2363
(dp6677
I1584
g4094
sI2356
g5213
ssI2364
(dp6678
I2356
g5214
sI2246
g5105
ssI2365
(dp6679
I2246
g5106
sI2207
g5042
ssI2366
(dp6680
I2197
g5029
sI2207
g5043
ssI2367
(dp6681
I2116
g4898
sI2197
g5030
ssI2368
(dp6682
I2116
g4897
sI2293
g5161
ssI2369
(dp6683
I1584
g4093
sI2293
g5162
ssI2370
(dp6684
sI2374
(dp6685
sI2375
(dp6686
I2370
g5224
sI2291
g5157
sI2270
g5140
ssI2376
(dp6687
I1995
g4713
sI2270
g5139
sI2374
g5226
ssI2383
(dp6688
I1778
g4400
sI2142
g4929
ssI2384
(dp6689
I2328
g5195
sI1778
g4399
ssI2385
(dp6690
I2328
g5196
sI2006
g4728
ssI2386
(dp6691
I2355
g5210
sI2006
g4729
ssI2387
(dp6692
I2355
g5211
sI2214
g5055
ssI2388
(dp6693
I2214
g5056
sI2142
g4928
ssI2391
(dp6694
I2320
g5181
sI2259
g5128
ssI2392
(dp6695
I2320
g5180
sI2259
g5127
ssI2397
(dp6696
I2387
g5237
ssI2398
(dp6697
I2387
g5238
sI2302
g5168
ssI2399
(dp6698
I2028
g4777
sI2302
g5169
ssI2400
(dp6699
I2028
g4776
sI2005
g4725
ssI2401
(dp6700
I2005
g4726
ssI2404
(dp6701
I2252
g5114
ssI2405
(dp6702
I2252
g5115
ssI2406
(dp6703
I2252
g5116
ssI2407
(dp6704
I2184
g5016
sI2252
g5117
ssI2408
(dp6705
I2184
g5013
ssI2409
(dp6706
I2184
g5014
ssI2410
(dp6707
I2184
g5015
ssI2413
(dp6708
I2133
g4912
ssI2414
(dp6709
I2258
g5124
sI2133
g4913
ssI2415
(dp6710
I2258
g5125
ssI2421
(dp6711
I1865
g4540
sI2397
g5243
ssI2422
(dp6712
I2410
g5260
sI2397
g5244
ssI2423
(dp6713
I2410
g5261
sI2414
g5265
ssI2424
(dp6714
I2113
g4889
sI2414
g5264
ssI2427
(dp6715
sI2431
(dp6716
sI2432
(dp6717
sI2433
(dp6718
I2432
g5281
sI2183
g5010
ssI2434
(dp6719
I2346
g5201
sI2183
g5011
ssI2435
(dp6720
I2346
g5202
sI2427
g5274
ssI2436
(dp6721
I2161
g4967
sI2427
g5275
ssI2437
(dp6722
I1864
g4537
sI2161
g4968
ssI2438
(dp6723
I1864
g4538
sI2100
g4875
ssI2439
(dp6724
I2100
g4876
sI2431
g5278
ssI2440
(dp6725
I2432
g5280
sI2431
g5277
ssI2443
(dp6726
I2437
g5288
sI2286
g5147
ssI2444
(dp6727
I2437
g5289
sI2286
g5148
ssI2447
(dp6728
I1862
g4532
ssI2448
(dp6729
I2353
g5207
sI1862
g4531
ssI2451
(dp6730
I2138
g4921
sI2013
g4745
ssI2452
(dp6731
I2138
g4922
sI2013
g4746
ssI2454
(dp6732
sI2455
(dp6733
sI2456
(dp6734
sI2458
(dp6735
I1916
g4613
ssI2459
(dp6736
I1916
g4614
sI2454
g5303
ssI2460
(dp6737
I1916
g4615
sI2455
g5305
ssI2461
(dp6738
I2456
g5307
sI1916
g4616
ssI2462
(dp6739
I1916
g4617
sI2438
g5291
ssI2465
(dp6740
I2066
g4831
ssI2466
(dp6741
I2409
g5257
sI2066
g4832
ssI2467
(dp6742
I2409
g5258
ssI2469
(dp6743
sI2471
(dp6744
I2129
g4908
ssI2472
(dp6745
I2129
g4906
sI2469
g5318
ssI2473
(dp6746
I2129
g4907
sI2269
g5137
ssI2476
(dp6747
I2313
g5177
ssI2477
(dp6748
I2313
g5178
sI2289
g5153
ssI2478
(dp6749
I2289
g5154
ssI2481
(dp6750
I2376
g5230
ssI2482
(dp6751
I2376
g5231
sI2476
g5328
ssI2486
(dp6752
I2424
g5271
sI2128
g4904
ssI2487
(dp6753
I2424
g5272
sI1869
g4550
ssI2505
(dp6754
I2436
g5286
sI1830
g4487
sI2375
g5228
sI2312
g5175
sI2247
g5108
sI1868
g4548
sI2288
g5151
sI2065
g4829
sI2266
g5135
ssI2506
(dp6755
I2406
g5253
sI2247
g5109
sI2461
g5312
sI2225
g5065
sI2230
g5074
sI2297
g5165
sI2012
g4743
sI2365
g5218
sI2399
g5247
ssI2507
(dp6756
sI2512
(dp6757
sI2516
(dp6758
I2505
g5340
sI2507
g5343
ssI2517
(dp6759
I2507
g5344
sI1710
g4313
ssI2518
(dp6760
I2208
g5045
sI1710
g4314
ssI2519
(dp6761
I2208
g5046
sI2181
g5004
ssI2520
(dp6762
I2473
g5325
sI2181
g5003
ssI2521
(dp6763
I2512
g5346
sI2473
g5326
ssI2522
(dp6764
I2512
g5347
sI1972
g4684
ssI2523
(dp6765
I2057
g4813
sI1972
g4685
ssI2524
(dp6766
I2505
g5339
sI2057
g4814
ssI2527
(dp6767
I2321
g5184
sI2487
g5337
ssI2528
(dp6768
I2321
g5183
sI2487
g5336
ssI2531
(dp6769
I2322
g5186
sI2517
g5350
ssI2532
(dp6770
I2322
g5187
sI2517
g5351
ssI2534
(dp6771
sI2536
(dp6772
I2471
g5320
ssI2537
(dp6773
I2534
g5366
sI2471
g5321
ssI2538
(dp6774
I2482
g5333
sI2471
g5322
ssI2543
(dp6775
I2443
g5296
ssI2544
(dp6776
I2443
g5295
sI2253
g5119
ssI2545
(dp6777
I2524
g5359
sI2253
g5120
ssI2546
(dp6778
I2536
g5368
sI2524
g5360
sssS'adj'
p6779
g1417
sbsS'sydney_sched'
p6780
(lp6781
I2
aI1
aI1214
aI1215
aI1518
aI1217
aI365
aI1257
aI1301
aI1221
aI1300
aI2175
aI2184
aI1229
aI1666
aI1667
aI1674
aI65
aI5
aI11
aI59
aI70
aI236
aI6
aI379
aI9
aI377
aI1238
aI69
aI1532
aI85
aI1530
aI1605
aI24
aI79
aI10
aI156
aI293
aI837
aI1264
aI4
aI411
aI7
aI1880
aI437
aI1662
aI414
aI446
aI1669
aI442
aI451
aI33
aI1267
aI32
aI1263
aI1291
aI297
aI1237
aI1370
aI840
aI1369
aI161
aI29
aI90
aI27
aI80
aI134
aI1688
aI1536
aI89
aI23
aI55
aI35
aI40
aI60
aI92
aI95
aI91
aI96
aI158
aI164
aI298
aI22
aI39
aI12
aI47
aI106
aI112
aI56
aI38
aI858
aI41
aI48
aI58
aI1150
aI88
aI249
aI384
aI1090
aI383
aI790
aI242
aI1310
aI720
aI8
aI1259
aI3
aI18
aI13
aI19
aI72
aI17
aI63
aI71
aI28
aI57
aI163
aI104
aI111
aI76
aI162
aI83
aI116
aI75
aI115
aI82
aI108
aI124
aI64
aI123
aI81
aI110
aI100
aI109
aI179
aI122
aI178
aI125
aI130
aI129
aI142
aI136
aI141
aI165
aI154
aI135
aI148
aI140
aI147
aI203
aI146
aI153
aI176
aI189
aI128
aI155
aI246
aI241
aI175
aI240
aI177
aI214
aI188
aI187
aI210
aI247
aI345
aI374
aI385
aI591
aI347
aI409
aI506
aI515
aI629
aI590
aI211
aI216
aI204
aI217
aI724
aI663
aI677
aI373
aI346
aI372
aI237
aI371
aI174
aI215
aI173
aI213
aI121
aI183
aI206
aI182
aI205
aI194
aI199
aI229
aI238
aI300
aI315
aI319
aI361
aI367
aI370
aI397
aI419
aI369
aI386
aI434
aI420
aI423
aI445
aI424
aI314
aI396
aI239
aI366
aI190
aI368
aI192
aI318
aI186
aI198
aI221
aI220
aI283
aI225
aI653
aI224
aI376
aI230
aI845
aI169
aI254
aI253
aI256
aI262
aI393
aI452
aI282
aI450
aI281
aI410
aI255
aI263
aI257
aI261
aI1722
aI231
aI1342
aI170
aI1343
aI265
aI269
aI277
aI268
aI313
aI436
aI276
aI270
aI292
aI299
aI495
aI307
aI312
aI324
aI405
aI271
aI406
aI416
aI462
aI507
aI516
aI415
aI275
aI501
aI286
aI291
aI1080
aI306
aI336
aI443
aI465
aI500
aI337
aI327
aI746
aI325
aI332
aI341
aI402
aI340
aI392
aI435
aI427
aI430
aI469
aI541
aI468
aI472
aI496
aI535
aI429
aI444
aI577
aI333
aI521
aI572
aI569
aI538
aI401
aI536
aI561
aI576
aI585
aI630
aI375
aI457
aI714
aI428
aI456
aI464
aI474
aI463
aI473
aI331
aI479
aI480
aI517
aI494
aI518
aI530
aI478
aI575
aI594
aI614
aI595
aI612
aI678
aI540
aI679
aI716
aI647
aI729
aI778
aI638
aI586
aI613
aI740
aI650
aI657
aI893
aI1711
aI537
aI1657
aI539
aI1363
aI326
aI1309
aI351
aI354
aI358
aI391
aI503
aI1224
aI502
aI830
aI357
aI349
aI1225
aI348
aI353
aI362
aI519
aI525
aI532
aI562
aI571
aI617
aI623
aI619
aI622
aI633
aI570
aI718
aI531
aI618
aI520
aI524
aI542
aI550
aI547
aI581
aI588
aI580
aI589
aI611
aI637
aI661
aI639
aI701
aI687
aI587
aI686
aI735
aI688
aI551
aI604
aI681
aI702
aI682
aI680
aI632
aI609
aI695
aI730
aI819
aI925
aI795
aI787
aI715
aI818
aI662
aI817
aI631
aI726
aI774
aI725
aI610
aI723
aI608
aI744
aI549
aI605
aI548
aI564
aI648
aI773
aI378
aI646
aI649
aI658
aI784
aI563
aI792
aI598
aI601
aI671
aI693
aI670
aI599
aI736
aI770
aI668
aI704
aI707
aI703
aI708
aI771
aI786
aI694
aI745
aI600
aI696
aI737
aI742
aI717
aI785
aI777
aI794
aI776
aI793
aI842
aI643
aI772
aI743
aI759
aI807
aI826
aI805
aI642
aI806
aI841
aI922
aI813
aI760
aI812
aI834
aI836
aI918
aI827
aI917
aI775
aI809
aI823
aI808
aI804
aI847
aI884
aI911
aI914
aI846
aI854
aI850
aI669
aI871
aI894
aI899
aI872
aI937
aI931
aI870
aI853
aI924
aI852
aI923
aI803
aI862
aI875
aI865
aI876
aI898
aI879
aI930
aI880
aI929
aI916
aI863
aI915
aI883
aI890
aI889
aI985
aI962
aI888
aI861
aI822
aI866
aI829
aI835
aI1222
aI910
aI961
aI864
aI1853
aI734
aI904
aI908
aI900
aI903
aI935
aI959
aI978
aI997
aI848
aI936
aI986
aI960
aI1004
aI965
aI975
aI989
aI979
aI996
aI966
aI909
aI974
aI987
aI993
aI992
aI1000
aI1011
aI988
aI1015
aI1028
aI1001
aI1012
aI1014
aI1035
aI1005
aI1021
aI1031
aI1020
aI1030
aI1039
aI1043
aI1040
aI1029
aI1038
aI1013
aI1019
aI1032
aI1033
aI1056
aI1055
aI1057
aI1074
aI1053
aI1059
aI1087
aI1072
aI1086
aI1093
aI1101
aI1102
aI1054
aI1073
aI1044
aI1058
aI1060
aI1063
aI1071
aI1078
aI1070
aI1097
aI1085
aI1098
aI1084
aI1146
aI1105
aI1147
aI1247
aI1249
aI1246
aI1304
aI1064
aI1088
aI1099
aI1096
aI1077
aI1109
aI1100
aI1110
aI1131
aI1114
aI1347
aI1113
aI1262
aI1106
aI1123
aI1120
aI1124
aI1130
aI1121
aI1129
aI1154
aI1148
aI1139
aI1161
aI1182
aI1210
aI1155
aI1162
aI1177
aI1213
aI1160
aI1239
aI1296
aI1360
aI1271
aI1346
aI1437
aI1497
aI1436
aI1272
aI1297
aI1176
aI1514
aI1132
aI1153
aI1137
aI1142
aI1184
aI1143
aI1178
aI1138
aI1179
aI1198
aI1231
aI1235
aI1253
aI1495
aI1234
aI1493
aI1233
aI1201
aI1275
aI1122
aI1205
aI1366
aI1183
aI1287
aI1430
aI1364
aI1204
aI1286
aI1302
aI1389
aI1457
aI1276
aI1135
aI1156
aI1165
aI1181
aI1189
aI1199
aI1279
aI1261
aI1280
aI1200
aI1307
aI1180
aI1190
aI1193
aI1243
aI1285
aI1353
aI1241
aI1268
aI1414
aI1244
aI1323
aI1245
aI1314
aI1411
aI1468
aI1787
aI1433
aI1242
aI1260
aI1240
aI1228
aI1461
aI1508
aI1593
aI1678
aI1212
aI1511
aI1227
aI1327
aI1345
aI1452
aI1527
aI1583
aI1526
aI1572
aI1524
aI1451
aI1563
aI1540
aI1545
aI1629
aI1344
aI1570
aI1476
aI1585
aI1293
aI1737
aI1790
aI1326
aI1675
aI1250
aI1308
aI1333
aI1376
aI1396
aI1375
aI1600
aI1652
aI1846
aI1377
aI1397
aI1417
aI1519
aI1684
aI1522
aI1567
aI1521
aI1646
aI1741
aI1418
aI1446
aI1731
aI1844
aI1782
aI1840
aI1866
aI1395
aI1292
aI1447
aI1503
aI1716
aI1401
aI1717
aI1575
aI1781
aI1811
aI1578
aI1621
aI2093
aI1812
aI1908
aI1884
aI1863
aI1929
aI2182
aI1780
aI1907
aI1334
aI1509
aI1254
aI1248
aI1390
aI1458
aI1477
aI1658
aI1895
aI1659
aI1879
aI1989
aI1896
aI1306
aI1303
aI1337
aI1356
aI1410
aI1409
aI1427
aI1568
aI1815
aI1920
aI1816
aI1428
aI1429
aI1448
aI1472
aI2158
aI2156
aI2229
aI2252
aI1426
aI1839
aI1948
aI1952
aI2038
aI1950
aI1970
aI2039
aI2141
aI2166
aI2165
aI1232
aI1783
aI1338
aI1736
aI1854
aI1236
aI1435
aI1378
aI1223
aI1354
aI1415
aI1496
aI1507
aI1523
aI1689
aI1791
aI1998
aI1494
aI1588
aI1400
aI1622
aI1992
aI1642
aI1595
aI1510
aI1571
aI1788
aI1850
aI2133
aI1512
aI1598
aI1638
aI1502
aI1631
aI1188
aI1616
aI1623
aI1826
aI2134
aI1194
aI1449
aI2231
aI1434
aI1546
aI1925
aI1611
aI1525
aI1859
aI1673
aI1870
aI2064
aI2215
aI2258
aI1471
aI1316
aI1315
aI1322
aI1560
aI1608
aI1618
aI1348
aI1599
aI1609
aI1672
aI1695
aI1693
aI1501
aI1698
aI1515
aI1905
aI1697
aI2409
aI1505
aI1701
aI1576
aI1680
aI1976
aI1990
aI2066
aI1359
aI1365
aI1823
aI1479
aI1535
aI1539
aI1313
aI1647
aI1581
aI1589
aI1500
aI1592
aI1774
aI2238
aI1660
aI1416
aI1136
aI1836
aI2051
aI1888
aI1531
aI1712
aI1904
aI2177
aI2179
aI1705
aI2005
aI1432
aI1620
aI1739
aI2235
aI1619
aI1842
aI1478
aI1538
aI1643
aI1462
aI1885
aI1785
aI2155
aI1653
aI1820
aI1671
aI2071
aI2137
aI1997
aI1916
aI1893
aI2456
aI1661
aI1702
aI1549
aI2454
aI1858
aI2455
aI1491
aI2138
aI1828
aI2013
aI1928
aI1937
aI2023
aI1951
aI1670
aI2022
aI1683
aI1547
aI1730
aI1867
aI2149
aI1637
aI1786
aI1636
aI2085
aI2178
aI2239
aI2007
aI2028
aI1883
aI2313
aI1537
aI1707
aI1577
aI1490
aI1751
aI1981
aI1513
aI1969
aI2034
aI2192
aI2210
aI2211
aI1708
aI2033
aI1627
aI1431
aI1651
aI1220
aI1732
aI1748
aI1743
aI1226
aI1607
aI1166
aI1936
aI1355
aI1391
aI1467
aI1488
aI1919
aI2197
aI2246
aI2108
aI2356
aI2161
aI1230
aI1864
aI2437
aI1759
aI1606
aI1529
aI1499
aI1778
aI1520
aI2328
aI2142
aI1559
aI2214
aI1498
aI1569
aI1211
aI1917
aI1971
aI2058
aI2257
aI2233
aI1894
aI1754
aI1749
aI1742
aI2086
aI1489
aI1628
aI1770
aI1803
aI1829
aI1861
aI2046
aI2198
aI2011
aI2236
aI1679
aI1709
aI1769
aI1808
aI2040
aI1849
aI2021
aI2059
aI2168
aI2302
aI1977
aI2079
aI2112
aI2355
aI2387
aI1922
aI2020
aI2148
aI2289
aI2286
aI2443
aI2116
aI2019
aI1506
aI2060
aI2006
aI2251
aI2207
aI1584
aI1706
aI2293
aI1617
aI2008
aI2047
aI2114
aI2120
aI2180
aI1988
aI2206
aI1996
aI2087
aI2088
aI1862
aI1696
aI2253
aI1804
aI2427
aI2146
aI2048
aI2353
aI2432
aI2431
aI2183
aI1909
aI1690
aI2100
aI2438
aI1487
aI2414
aI2113
aI2410
aI2397
aI1865
aI2208
aI2181
aI1710
aI2507
aI2009
aI2026
aI2089
aI2129
aI2471
aI2534
aI2469
aI2269
aI2473
aI2512
aI1918
aI1827
aI2517
aI1807
aI2081
aI2115
aI2052
aI2322
aI2069
aI2075
aI1982
aI2110
aI1980
aI2259
aI1921
aI2130
aI2292
aI2320
aI1869
aI2424
aI2487
aI2321
aI2374
aI1995
aI2095
aI2270
aI2376
aI1987
aI2128
aI2476
aI2482
aI2324
aI1819
aI1924
aI1892
aI2094
aI1838
aI1972
aI2010
aI2346
aI2057
aI1727
aI1718
aI1728
aI1450
aI2370
aI1733
aI2291
aI1779
aI1582
aI1878
aI1830
aI1789
aI2065
aI2375
aI1906
aI1548
aI2237
aI1425
aI1800
aI1868
aI1913
aI1973
aI2247
aI2263
aI2266
aI2436
aI2288
aI2312
aI2505
aI2524
aI2536
aI2169
aI2261
aI1528
aI1305
aI2147
aI2109
aI2245
aI1635
aI2323
aI2203
aI1755
aI2186
aI2015
aI2344
aI2167
aI2284
aI1466
aI1773
aI1729
aI1889
aI1944
aI1799
aI1258
aI2283
aI2458
aI2234
aI2271
aI1793
aI2401
aI2532
aI2014
aI1845
aI2545
aI1639
aI2012
aI1915
aI2388
aI1713
aI2111
aI2348
aI1492
aI2287
aI2452
aI1784
aI2099
aI2399
aI2296
aI2227
aI2191
aI2528
aI2537
aI2444
aI2408
aI2391
aI2481
aI2225
aI2368
aI2228
aI2520
aI2406
aI2407
aI2265
aI2240
aI2384
aI2244
aI2435
aI1750
aI2439
aI2205
aI2171
aI2465
aI2538
aI2415
aI2472
aI2467
aI2219
aI2461
aI2392
aI2365
aI2434
aI2543
aI2516
aI1932
aI2460
aI2363
aI2413
aI2367
aI2301
aI2027
aI2486
aI2518
aI2327
aI2029
aI2209
aI2421
aI2466
aI2423
aI2364
aI2185
aI2366
aI2405
aI2196
aI2440
aI2003
aI2187
aI2462
aI2398
aI2297
aI2422
aI2230
aI2506
aI2202
aI2478
aI2226
aI2386
aI2204
aI2400
aI2290
aI2477
aI2527
aI2218
aI2354
aI2070
aI2521
aI2310
aI1914
aI2035
aI1837
aI1933
aI2232
aI2433
aI2119
aI2311
aI2451
aI2170
aI1792
aI1504
aI1923
aI2459
aI2159
aI2349
aI2157
aI2369
aI2522
aI2345
aI2531
aI2347
aI2285
aI2519
aI2160
aI2546
aI2404
aI2544
aI1945
aI2448
aI1453
aI2004
aI2042
aI2385
aI2303
aI2224
aI2041
aI2309
aI2080
aI2447
aI2523
aI2383
aI1946
asS'dynamic_sched'
p6782
(lp6783
I1214
aI1
aI1215
aI2
aI1518
aI365
aI1217
aI1221
aI1301
aI1257
aI1300
aI1238
aI1229
aI1236
aI1264
aI1530
aI1605
aI24
aI6
aI10
aI9
aI65
aI69
aI156
aI85
aI236
aI5
aI293
aI11
aI59
aI70
aI79
aI4
aI379
aI7
aI377
aI2175
aI2184
aI2409
aI411
aI1880
aI437
aI1662
aI414
aI1532
aI1536
aI1535
aI837
aI1531
aI1537
aI840
aI1539
aI1628
aI1669
aI446
aI1883
aI442
aI451
aI2410
aI2467
aI2408
aI33
aI384
aI32
aI383
aI80
aI90
aI134
aI297
aI55
aI242
aI89
aI95
aI88
aI96
aI23
aI161
aI22
aI29
aI12
aI47
aI56
aI27
aI1688
aI35
aI40
aI60
aI92
aI1627
aI91
aI1359
aI158
aI164
aI298
aI1263
aI39
aI1267
aI106
aI112
aI1291
aI1259
aI1237
aI1370
aI38
aI1369
aI41
aI48
aI58
aI1258
aI1306
aI375
aI1305
aI378
aI1308
aI376
aI1307
aI13
aI1310
aI8
aI19
aI72
aI3
aI17
aI63
aI71
aI18
aI28
aI57
aI76
aI104
aI83
aI116
aI111
aI115
aI75
aI163
aI82
aI108
aI124
aI162
aI123
aI64
aI122
aI81
aI125
aI130
aI129
aI142
aI136
aI141
aI165
aI140
aI146
aI153
aI135
aI148
aI147
aI203
aI110
aI154
aI128
aI189
aI100
aI109
aI176
aI241
aI179
aI240
aI178
aI187
aI247
aI345
aI374
aI385
aI591
aI347
aI409
aI506
aI515
aI629
aI663
aI677
aI590
aI155
aI720
aI724
aI373
aI204
aI372
aI211
aI217
aI210
aI216
aI175
aI215
aI177
aI214
aI188
aI213
aI237
aI371
aI190
aI346
aI1309
aI246
aI1239
aI169
aI1529
aI186
aI1528
aI174
aI1228
aI173
aI1227
aI121
aI183
aI206
aI182
aI205
aI194
aI199
aI229
aI238
aI300
aI315
aI319
aI361
aI367
aI370
aI397
aI419
aI369
aI192
aI198
aI221
aI220
aI283
aI225
aI386
aI224
aI420
aI423
aI445
aI424
aI314
aI434
aI239
aI396
aI170
aI366
aI2534
aI368
aI2512
aI318
aI2507
aI230
aI2469
aI249
aI254
aI253
aI256
aI262
aI393
aI452
aI282
aI450
aI281
aI410
aI255
aI263
aI257
aI261
aI2456
aI265
aI269
aI277
aI268
aI313
aI436
aI276
aI299
aI495
aI307
aI312
aI324
aI405
aI271
aI406
aI416
aI462
aI507
aI516
aI415
aI275
aI501
aI286
aI291
aI231
aI306
aI336
aI443
aI270
aI292
aI465
aI500
aI337
aI327
aI1226
aI325
aI332
aI341
aI402
aI340
aI401
aI457
aI714
aI893
aI392
aI435
aI427
aI430
aI469
aI541
aI468
aI472
aI496
aI535
aI428
aI456
aI464
aI429
aI444
aI474
aI333
aI521
aI572
aI473
aI463
aI538
aI331
aI479
aI536
aI561
aI576
aI585
aI630
aI480
aI517
aI494
aI518
aI530
aI575
aI594
aI614
aI595
aI612
aI678
aI540
aI679
aI716
aI647
aI729
aI778
aI638
aI586
aI613
aI478
aI577
aI537
aI569
aI539
aI1225
aI326
aI1224
aI351
aI354
aI358
aI391
aI503
aI1223
aI502
aI1222
aI357
aI1220
aI2455
aI348
aI2454
aI349
aI353
aI362
aI519
aI525
aI532
aI562
aI571
aI617
aI623
aI619
aI622
aI633
aI570
aI718
aI531
aI618
aI520
aI524
aI542
aI550
aI547
aI581
aI588
aI580
aI589
aI611
aI637
aI551
aI639
aI604
aI681
aI701
aI687
aI587
aI686
aI735
aI549
aI563
aI548
aI598
aI599
aI564
aI648
aI646
aI631
aI773
aI726
aI688
aI792
aI790
aI795
aI774
aI649
aI643
aI601
aI642
aI605
aI670
aI704
aI707
aI703
aI708
aI671
aI693
aI736
aI770
aI609
aI694
aI680
aI695
aI730
aI819
aI600
aI696
aI740
aI745
aI661
aI744
aI668
aI743
aI737
aI742
aI777
aI771
aI776
aI682
aI786
aI632
aI787
aI842
aI717
aI669
aI925
aI715
aI794
aI702
aI793
aI662
aI734
aI746
aI759
aI610
aI772
aI653
aI658
aI650
aI657
aI760
aI775
aI785
aI818
aI784
aI817
aI608
aI834
aI836
aI725
aI829
aI723
aI809
aI805
aI807
aI826
aI806
aI841
aI922
aI827
aI918
aI823
aI917
aI822
aI813
aI830
aI835
aI2432
aI812
aI2431
aI2440
aI2427
aI808
aI2374
aI804
aI2370
aI845
aI847
aI884
aI911
aI914
aI846
aI854
aI871
aI894
aI899
aI850
aI872
aI937
aI853
aI931
aI870
aI852
aI924
aI916
aI923
aI915
aI910
aI883
aI848
aI803
aI2356
aI858
aI862
aI875
aI865
aI876
aI861
aI864
aI904
aI908
aI900
aI903
aI935
aI909
aI936
aI961
aI966
aI879
aI965
aI863
aI889
aI888
aI960
aI974
aI987
aI992
aI986
aI988
aI880
aI975
aI989
aI993
aI1001
aI985
aI1000
aI1035
aI890
aI1080
aI929
aI962
aI898
aI1090
aI930
aI1093
aI866
aI959
aI978
aI997
aI1004
aI1015
aI1005
aI1020
aI1014
aI1021
aI1030
aI996
aI1031
aI1038
aI1029
aI1011
aI1032
aI979
aI1033
aI1012
aI1039
aI1043
aI1013
aI1028
aI1040
aI1019
aI1054
aI1044
aI1060
aI1063
aI1059
aI1056
aI1070
aI1097
aI1064
aI1088
aI1053
aI1057
aI1074
aI1055
aI1072
aI1086
aI1102
aI1101
aI1096
aI1131
aI1073
aI1087
aI1100
aI1071
aI1105
aI1058
aI1078
aI1085
aI1099
aI1084
aI1147
aI1247
aI1249
aI1260
aI1461
aI1246
aI1303
aI1338
aI1077
aI1337
aI1146
aI1510
aI1098
aI1106
aI1849
aI1160
aI1355
aI1110
aI1893
aI1109
aI1892
aI1509
aI1293
aI1508
aI1292
aI1262
aI1462
aI1261
aI1302
aI1250
aI1304
aI1248
aI1342
aI1347
aI1343
aI1348
aI1606
aI1114
aI2344
aI1113
aI1123
aI1120
aI1124
aI1130
aI1121
aI1150
aI1139
aI1161
aI1182
aI1210
aI1213
aI1296
aI1360
aI1129
aI1154
aI1148
aI1136
aI1155
aI1162
aI1177
aI1271
aI1346
aI1437
aI1498
aI1436
aI1497
aI1272
aI1496
aI1153
aI1211
aI1511
aI1176
aI1540
aI1545
aI1629
aI1708
aI1705
aI1807
aI2033
aI1707
aI1515
aI1706
aI1514
aI1432
aI1513
aI1297
aI1512
aI1132
aI1138
aI1137
aI1143
aI1142
aI1184
aI1179
aI1198
aI1232
aI1231
aI1490
aI1178
aI1494
aI1588
aI1235
aI1253
aI1642
aI1751
aI1201
aI1750
aI1122
aI1205
aI1365
aI1363
aI1366
aI1204
aI1389
aI1466
aI1364
aI1653
aI1495
aI1487
aI1493
aI1489
aI1492
aI1488
aI1491
aI1183
aI1234
aI1275
aI1287
aI1233
aI1286
aI1457
aI1581
aI1589
aI1773
aI1431
aI1582
aI1430
aI1230
aI1156
aI1276
aI1135
aI1165
aI1181
aI1189
aI1199
aI1279
aI1280
aI1190
aI1193
aI1243
aI1285
aI1353
aI1415
aI1414
aI1593
aI1546
aI1592
aI1354
aI1479
aI1241
aI1435
aI1188
aI1433
aI1166
aI1200
aI1254
aI1390
aI1458
aI1478
aI1538
aI1643
aI1180
aI1212
aI1327
aI1345
aI1452
aI1527
aI1451
aI1476
aI1736
aI1326
aI1333
aI1378
aI1334
aI1356
aI1409
aI1429
aI1584
aI1242
aI1410
aI1425
aI1344
aI1375
aI1600
aI1652
aI1844
aI1885
aI1526
aI1572
aI1790
aI1842
aI1524
aI1595
aI1599
aI1620
aI1611
aI1571
aI1598
aI1638
aI1631
aI1992
aI1563
aI1376
aI1395
aI1240
aI1396
aI1507
aI1427
aI1505
aI1377
aI1397
aI1417
aI1523
aI1418
aI1447
aI1503
aI1716
aI1522
aI1567
aI1502
aI1519
aI1666
aI1521
aI1646
aI1741
aI1739
aI1313
aI1619
aI1416
aI1667
aI1674
aI1710
aI1689
aI1712
aI1904
aI1583
aI1675
aI1684
aI1791
aI1998
aI1690
aI1500
aI1754
aI2099
aI1607
aI1770
aI2042
aI1742
aI1804
aI2218
aI1803
aI1997
aI2041
aI1711
aI2011
aI1709
aI2010
aI1713
aI2517
aI1467
aI1743
aI1647
aI1673
aI1782
aI1859
aI1870
aI1858
aI1869
aI2064
aI1781
aI1672
aI1717
aI1811
aI1909
aI2100
aI1501
aI1696
aI1693
aI1697
aI1982
aI1812
aI2439
aI1568
aI1780
aI1678
aI1815
aI1920
aI1816
aI2235
aI2005
aI1919
aI2197
aI2401
aI2207
aI2366
aI2247
aI2234
aI2004
aI2233
aI2003
aI1918
aI1779
aI1446
aI1778
aI1651
aI1732
aI1749
aI1683
aI1748
aI2069
aI1520
aI2206
aI1569
aI1499
aI1506
aI1701
aI1504
aI1549
aI1401
aI1548
aI1575
aI1578
aI1621
aI2093
aI1789
aI1400
aI1622
aI1616
aI1623
aI1829
aI1861
aI2046
aI2198
aI1846
aI1862
aI1853
aI1823
aI1854
aI1864
aI1774
aI1827
aI2081
aI1863
aI2438
aI2196
aI1828
aI2180
aI2447
aI1570
aI2271
aI1722
aI1731
aI1840
aI1866
aI1908
aI1929
aI1928
aI1937
aI2183
aI1737
aI1836
aI2051
aI1888
aI2052
aI1670
aI1730
aI1867
aI2085
aI1428
aI1839
aI2089
aI2149
aI1868
aI2433
aI2321
aI1936
aI2087
aI1865
aI2086
aI1826
aI1907
aI1671
aI2095
aI1800
aI2182
aI2094
aI2181
aI1577
aI1838
aI1884
aI1969
aI2035
aI1637
aI2034
aI1426
aI1576
aI2363
aI1680
aI1977
aI1996
aI1976
aI1995
aI2171
aI1639
aI2170
aI1845
aI1477
aI1793
aI1657
aI1658
aI1895
aI1924
aI1972
aI1661
aI1702
aI1660
aI2057
aI1659
aI1879
aI1990
aI2066
aI1988
aI2048
aI2466
aI2065
aI2465
aI1755
aI1989
aI1894
aI1987
aI1896
aI2523
aI1525
aI1830
aI1391
aI2522
aI1194
aI1925
aI1268
aI1923
aI1244
aI1323
aI1434
aI1314
aI1411
aI1468
aI1787
aI1916
aI1783
aI1785
aI1786
aI2007
aI2313
aI2008
aI1820
aI1788
aI1850
aI2134
aI2133
aI2413
aI2215
aI1837
aI2214
aI2476
aI2047
aI1933
aI1819
aI1932
aI2462
aI2006
aI2461
aI2009
aI2460
aI1917
aI2459
aI1915
aI2458
aI1914
aI1784
aI1913
aI2263
aI1922
aI2261
aI1921
aI2155
aI1792
aI2108
aI1889
aI2075
aI1799
aI2023
aI1944
aI1946
aI1449
aI2022
aI1448
aI1948
aI1245
aI1472
aI2158
aI2156
aI1585
aI1952
aI2229
aI2252
aI2231
aI2258
aI2038
aI2071
aI2040
aI2079
aI2115
aI2322
aI2161
aI1950
aI1971
aI2058
aI2110
aI2324
aI2346
aI2251
aI2116
aI1471
aI2414
aI2423
aI2113
aI2424
aI2487
aI2527
aI1559
aI2528
aI2303
aI2367
aI2088
aI2435
aI1970
aI2434
aI2039
aI2142
aI2141
aI2166
aI2165
aI2179
aI2238
aI2178
aI2137
aI2177
aI2327
aI2239
aI2328
aI2385
aI2312
aI2384
aI2219
aI2311
aI2237
aI2310
aI2236
aI2309
aI2112
aI2355
aI2387
aI2397
aI2353
aI2448
aI2422
aI2354
aI2421
aI2437
aI2386
aI2436
aI2240
aI2323
aI2383
aI2080
aI2388
aI2070
aI2532
aI2259
aI2531
aI2257
aI2111
aI2253
aI2109
aI1951
aI2138
aI1547
aI2026
aI2129
aI2471
aI2128
aI2028
aI2400
aI2486
aI2537
aI2472
aI2536
aI2029
aI2230
aI2027
aI2232
aI2415
aI1759
aI2407
aI1679
aI1769
aI1808
aI2019
aI2021
aI2060
aI2059
aI2168
aI2302
aI2169
aI2020
aI2148
aI2293
aI2286
aI2443
aI2289
aI2478
aI2543
aI2477
aI2544
aI2444
aI2369
aI2291
aI2368
aI2288
aI2399
aI2287
aI2398
aI2285
aI2167
aI2284
aI2406
aI2283
aI2405
aI2265
aI2404
aI2301
aI2228
aI2205
aI2227
aI2204
aI2226
aI2203
aI2225
aI2202
aI2224
aI2187
aI2160
aI2186
aI2159
aI2185
aI2157
aI1728
aI1453
aI1727
aI1733
aI1878
aI2290
aI1718
aI1450
aI1729
aI1945
aI1316
aI1315
aI1322
aI1560
aI1609
aI1695
aI2013
aI1698
aI1905
aI1981
aI2192
aI2211
aI2270
aI2376
aI1608
aI1618
aI2208
aI1617
aI2114
aI2120
aI2146
aI2210
aI1636
aI2246
aI1635
aI1980
aI2130
aI2292
aI2320
aI2015
aI2482
aI2245
aI2269
aI2473
aI1906
aI1973
aI2147
aI2347
aI2266
aI2538
aI2375
aI2505
aI2524
aI2546
aI2516
aI2545
aI2521
aI2391
aI2520
aI2392
aI2348
aI2345
aI2349
aI2297
aI2365
aI2296
aI2012
aI2506
aI2364
aI2119
aI2244
aI2519
aI2481
aI2518
aI2191
aI2209
aI2014
aI2452
aI2451
asS'aopsd_sched'
p6784
(lp6785
I1
aI2
aI365
aI1217
aI1518
aI1214
aI1215
aI2175
aI2184
aI1257
aI1301
aI1300
aI1666
aI1667
aI1674
aI1662
aI1880
aI24
aI65
aI69
aI85
aI156
aI293
aI236
aI379
aI411
aI437
aI837
aI1532
aI1535
aI1264
aI2409
aI6
aI10
aI5
aI4
aI11
aI9
aI7
aI8
aI13
aI3
aI12
aI27
aI18
aI59
aI17
aI19
aI29
aI32
aI23
aI35
aI55
aI89
aI22
aI33
aI88
aI70
aI71
aI158
aI28
aI47
aI40
aI63
aI106
aI96
aI39
aI64
aI41
aI38
aI161
aI95
aI79
aI60
aI48
aI56
aI80
aI75
aI57
aI104
aI163
aI162
aI112
aI72
aI90
aI58
aI91
aI81
aI164
aI82
aI100
aI83
aI76
aI111
aI297
aI134
aI92
aI109
aI116
aI108
aI110
aI115
aI177
aI298
aI179
aI123
aI125
aI122
aI154
aI124
aI121
aI178
aI129
aI130
aI142
aI140
aI135
aI136
aI148
aI147
aI128
aI141
aI146
aI210
aI211
aI153
aI165
aI203
aI204
aI194
aI169
aI186
aI192
aI170
aI155
aI216
aI187
aI173
aI176
aI175
aI188
aI247
aI189
aI198
aI190
aI242
aI217
aI174
aI183
aI240
aI347
aI182
aI214
aI221
aI213
aI241
aI220
aI383
aI377
aI378
aI376
aI375
aI345
aI409
aI205
aI199
aI206
aI224
aI283
aI225
aI237
aI346
aI246
aI384
aI215
aI229
aI374
aI506
aI373
aI230
aI249
aI371
aI372
aI231
aI254
aI253
aI385
aI256
aI238
aI515
aI300
aI591
aI262
aI629
aI255
aI261
aI410
aI263
aI281
aI282
aI257
aI239
aI265
aI720
aI590
aI442
aI414
aI446
aI269
aI268
aI393
aI315
aI270
aI271
aI677
aI314
aI451
aI724
aI663
aI277
aI319
aI276
aI286
aI275
aI450
aI318
aI313
aI452
aI292
aI312
aI361
aI307
aI306
aI291
aI324
aI370
aI367
aI369
aI336
aI351
aI326
aI366
aI337
aI349
aI348
aI325
aI327
aI368
aI299
aI405
aI419
aI332
aI354
aI406
aI353
aI341
aI340
aI358
aI357
aI397
aI420
aI386
aI416
aI445
aI443
aI415
aI333
aI362
aI436
aI434
aI396
aI391
aI402
aI462
aI401
aI500
aI465
aI501
aI331
aI495
aI423
aI424
aI427
aI392
aI520
aI430
aI469
aI428
aI456
aI429
aI444
aI468
aI464
aI541
aI521
aI472
aI463
aI540
aI539
aI496
aI474
aI507
aI457
aI714
aI480
aI535
aI435
aI479
aI516
aI478
aI473
aI572
aI538
aI536
aI569
aI537
aI494
aI561
aI893
aI517
aI542
aI502
aI503
aI577
aI547
aI576
aI519
aI518
aI551
aI549
aI548
aI581
aI525
aI585
aI586
aI646
aI564
aI575
aI530
aI680
aI580
aI524
aI550
aI588
aI594
aI531
aI589
aI532
aI587
aI595
aI630
aI611
aI604
aI612
aI562
aI614
aI609
aI610
aI605
aI653
aI729
aI632
aI725
aI631
aI608
aI638
aI649
aI650
aI613
aI563
aI598
aI679
aI637
aI571
aI570
aI601
aI648
aI695
aI678
aI682
aI600
aI681
aI639
aI647
aI671
aI670
aI701
aI617
aI696
aI619
aI716
aI687
aI686
aI599
aI618
aI740
aI661
aI668
aI737
aI730
aI657
aI773
aI688
aI790
aI669
aI662
aI702
aI787
aI693
aI778
aI735
aI694
aI623
aI704
aI703
aI726
aI622
aI746
aI743
aI744
aI643
aI717
aI742
aI715
aI795
aI642
aI792
aI723
aI759
aI736
aI708
aI707
aI745
aI718
aI633
aI819
aI770
aI658
aI771
aI805
aI806
aI777
aI804
aI807
aI776
aI775
aI809
aI818
aI760
aI774
aI808
aI803
aI734
aI817
aI834
aI925
aI772
aI840
aI826
aI841
aI786
aI836
aI845
aI823
aI827
aI829
aI794
aI822
aI830
aI813
aI785
aI793
aI784
aI812
aI847
aI846
aI850
aI917
aI835
aI848
aI922
aI842
aI918
aI854
aI884
aI853
aI852
aI858
aI883
aI911
aI862
aI865
aI871
aI872
aI864
aI900
aI863
aI870
aI861
aI866
aI910
aI879
aI914
aI903
aI904
aI876
aI875
aI937
aI894
aI899
aI908
aI923
aI889
aI936
aI961
aI890
aI898
aI930
aI935
aI888
aI924
aI909
aI959
aI929
aI931
aI985
aI965
aI960
aI966
aI880
aI986
aI974
aI916
aI975
aI962
aI978
aI979
aI987
aI997
aI992
aI988
aI993
aI1004
aI1005
aI1001
aI915
aI989
aI1000
aI996
aI1014
aI1011
aI1015
aI1020
aI1012
aI1035
aI1013
aI1021
aI1039
aI1028
aI1030
aI1043
aI1031
aI1033
aI1019
aI1029
aI1040
aI1032
aI1060
aI1044
aI1038
aI1057
aI1055
aI1053
aI1056
aI1063
aI1058
aI1072
aI1093
aI1064
aI1059
aI1074
aI1080
aI1054
aI1073
aI1071
aI1086
aI1070
aI1090
aI1088
aI1101
aI1087
aI1078
aI1097
aI1085
aI1084
aI1105
aI1147
aI1099
aI1098
aI1146
aI1077
aI1100
aI1343
aI1342
aI1236
aI1238
aI1531
aI1536
aI1530
aI1348
aI1237
aI1239
aI1528
aI1539
aI1529
aI1605
aI1263
aI1267
aI1102
aI1096
aI1291
aI1359
aI1537
aI1627
aI1688
aI1628
aI1606
aI1229
aI1221
aI1308
aI1224
aI1228
aI1309
aI1227
aI1220
aI1226
aI1310
aI1307
aI1222
aI1223
aI1225
aI1249
aI1247
aI1246
aI1131
aI1248
aI1258
aI1369
aI1110
aI1114
aI1370
aI1113
aI1106
aI1160
aI1305
aI1109
aI1259
aI1250
aI1306
aI1303
aI1260
aI1123
aI1120
aI1124
aI1121
aI1150
aI1304
aI1262
aI1261
aI1302
aI1293
aI1122
aI1292
aI1130
aI1461
aI1338
aI1129
aI1148
aI1337
aI1156
aI1135
aI1136
aI1462
aI1347
aI1155
aI1132
aI1137
aI1139
aI1154
aI1165
aI1138
aI1142
aI1161
aI1143
aI1162
aI1176
aI1153
aI1181
aI1180
aI1182
aI1184
aI1177
aI1179
aI1178
aI1189
aI1190
aI1188
aI1510
aI1166
aI1355
aI1198
aI1193
aI1210
aI1212
aI1213
aI1201
aI1199
aI1271
aI1194
aI1892
aI1391
aI1276
aI1316
aI1315
aI1508
aI1849
aI1893
aI1275
aI1183
aI1509
aI1211
aI1272
aI1200
aI2507
aI1711
aI1713
aI1712
aI1710
aI1232
aI1231
aI1346
aI1279
aI1205
aI1327
aI1280
aI1235
aI1233
aI1287
aI1243
aI1515
aI1204
aI1241
aI1296
aI1363
aI1326
aI1297
aI1242
aI2517
aI1511
aI1540
aI1230
aI1512
aI1245
aI1234
aI1513
aI1240
aI1322
aI1514
aI1244
aI1333
aI1437
aI1360
aI1285
aI1904
aI1366
aI1494
aI1334
aI1344
aI1545
aI1268
aI1254
aI1365
aI1490
aI1436
aI1435
aI1345
aI1286
aI1389
aI1629
aI1376
aI1353
aI1457
aI1390
aI1433
aI1377
aI1588
aI1378
aI1354
aI1432
aI1356
aI1451
aI1253
aI1375
aI1595
aI1400
aI1616
aI1491
aI1653
aI1323
aI1314
aI1313
aI1493
aI1496
aI1492
aI1450
aI1487
aI1497
aI1430
aI1750
aI1466
aI1495
aI1434
aI2218
aI1488
aI1364
aI1498
aI1489
aI1431
aI1396
aI1452
aI1397
aI1409
aI1410
aI1476
aI1414
aI1600
aI1458
aI1415
aI1395
aI1599
aI1611
aI1708
aI1705
aI1581
aI1623
aI1823
aI1707
aI1411
aI1479
aI1453
aI1680
aI1706
aI1709
aI1642
aI1582
aI1417
aI1468
aI1527
aI1736
aI1429
aI1418
aI1507
aI1593
aI1526
aI1416
aI1620
aI1589
aI1524
aI1563
aI1546
aI1478
aI1592
aI1652
aI1425
aI1505
aI1427
aI1842
aI1727
aI1477
aI1657
aI1525
aI1428
aI1737
aI1651
aI1728
aI1751
aI1807
aI1619
aI1739
aI2033
aI1888
aI1828
aI1504
aI1426
aI1401
aI1575
aI1826
aI1506
aI1547
aI1572
aI1447
aI1787
aI1658
aI1785
aI1522
aI1521
aI1523
aI1448
aI1578
aI1576
aI1844
aI1661
aI1519
aI1446
aI1774
aI1571
aI1538
aI1583
aI1786
aI1660
aI1570
aI1722
aI1679
aI1733
aI1883
aI1467
aI2171
aI2356
aI1584
aI1784
aI1743
aI1577
aI1701
aI1659
aI1585
aI1948
aI1944
aI1799
aI2170
aI1845
aI1639
aI1569
aI1520
aI1549
aI1449
aI1607
aI1773
aI1548
aI1678
aI1895
aI1731
aI1621
aI1732
aI1646
aI1622
aI1502
aI1503
aI1952
aI1500
aI1568
aI1790
aI1789
aI1702
aI1788
aI1675
aI1916
aI1567
aI1885
aI1884
aI2455
aI1472
aI2155
aI1647
aI1643
aI1471
aI1499
aI2456
aI1598
aI1690
aI1820
aI1631
aI2454
aI1977
aI1894
aI1946
aI1976
aI2022
aI1896
aI1950
aI1693
aI1501
aI1914
aI1792
aI1819
aI1669
aI2023
aI1951
aI1689
aI1791
aI1992
aI1683
aI1827
aI2363
aI1915
aI1913
aI1793
aI1854
aI1853
aI1858
aI1859
aI1741
aI1815
aI2156
aI1816
aI1998
aI1836
aI1716
aI1969
aI2038
aI1638
aI1637
aI1684
aI1560
aI1850
aI1672
aI2093
aI1671
aI1697
aI1670
aI1846
aI1673
aI1718
aI1754
aI2459
aI2029
aI1889
aI1923
aI1839
aI1748
aI1837
aI1717
aI1997
aI2461
aI2460
aI1749
aI1869
aI1924
aI1838
aI2099
aI2094
aI2069
aI2458
aI2027
aI1925
aI2039
aI2028
aI1800
aI1559
aI1759
aI1864
aI2161
aI2427
aI2159
aI2057
aI1755
aI1742
aI2026
aI1922
aI1830
aI1920
aI1783
aI1781
aI1730
aI1770
aI2071
aI1608
aI1609
aI2051
aI1919
aI1729
aI1779
aI1782
aI2133
aI2085
aI1780
aI1918
aI1769
aI1972
aI2134
aI2512
aI1917
aI1870
aI2235
aI2225
aI1932
aI2206
aI2157
aI2040
aI2075
aI2011
aI2233
aI2207
aI2227
aI2226
aI1995
aI1921
aI1696
aI1863
aI2180
aI1996
aI1778
aI2437
aI2436
aI2052
aI1982
aI2041
aI2035
aI2010
aI1933
aI2224
aI2070
aI2234
aI2042
aI2034
aI1695
aI1808
aI1879
aI1698
aI1618
aI2005
aI2079
aI1840
aI2197
aI1867
aI2064
aI1803
aI2108
aI1811
aI1812
aI2087
aI2081
aI1617
aI1804
aI1971
aI2007
aI1945
aI1878
aI2086
aI2089
aI2009
aI2003
aI2080
aI1868
aI2321
aI2137
aI2004
aI2138
aI2214
aI2006
aI2008
aI2523
aI2522
aI2247
aI2413
aI2019
aI2021
aI2115
aI1990
aI1829
aI2013
aI1905
aI1866
aI1909
aI2058
aI2020
aI2313
aI2110
aI1989
aI2129
aI2469
aI2116
aI2149
aI1636
aI1906
aI1635
aI1987
aI2012
aI2410
aI2015
aI2215
aI2467
aI2014
aI2400
aI2401
aI2408
aI1988
aI2109
aI2111
aI2113
aI2366
aI1865
aI2114
aI2432
aI2431
aI2148
aI2158
aI2060
aI1861
aI2059
aI2322
aI1981
aI2246
aI1908
aI2066
aI2100
aI2088
aI2324
aI1862
aI1980
aI2471
aI1907
aI2534
aI2160
aI2452
aI2472
aI1973
aI2187
aI2440
aI2186
aI2476
aI2367
aI2323
aI2065
aI2451
aI2185
aI2192
aI1929
aI2231
aI1970
aI2141
aI2286
aI1928
aI2293
aI2258
aI2142
aI2047
aI2120
aI2046
aI2346
aI2183
aI2210
aI2198
aI2211
aI2208
aI2181
aI2182
aI2229
aI2209
aI2196
aI2435
aI2443
aI1936
aI1937
aI2168
aI2302
aI2130
aI2292
aI2257
aI2203
aI2438
aI2166
aI2252
aI2165
aI2251
aI2414
aI2289
aI2095
aI2245
aI2147
aI2269
aI2253
aI2364
aI2270
aI2374
aI2433
aI2048
aI2146
aI2259
aI2320
aI2365
aI2230
aI2344
aI2434
aI2288
aI2191
aI2537
aI2119
aI2388
aI2285
aI2290
aI2465
aI2202
aI2345
aI2291
aI2370
aI2368
aI2228
aI2204
aI2283
aI2536
aI2369
aI2531
aI2205
aI2169
aI2518
aI2415
aI2244
aI2543
aI2271
aI2532
aI2399
aI2519
aI2287
aI2462
aI2112
aI2447
aI2232
aI2466
aI2383
aI2439
aI2167
aI2284
aI2444
aI2236
aI2376
aI2178
aI2473
aI2238
aI2424
aI2177
aI2179
aI2239
aI2128
aI2478
aI2544
aI2407
aI2297
aI2406
aI2240
aI2349
aI2405
aI2303
aI2263
aI2237
aI2261
aI2391
aI2477
aI2404
aI2423
aI2375
aI2301
aI2392
aI2296
aI2348
aI2347
aI2328
aI2355
aI2387
aI2397
aI2487
aI2312
aI2266
aI2505
aI2524
aI2353
aI2482
aI2538
aI2219
aI2506
aI2521
aI2527
aI2528
aI2486
aI2481
aI2448
aI2265
aI2520
aI2398
aI2422
aI2421
aI2386
aI2327
aI2310
aI2311
aI2516
aI2546
aI2545
aI2309
aI2385
aI2384
aI2354
asS'size'
p6786
I1400
sb.