ccopy_reg
_reconstructor
p0
(cdag_exporter
dag_export
p1
c__builtin__
object
p2
Ntp3
Rp4
(dp5
S'dag'
p6
g0
(cnetworkx.classes.digraph
DiGraph
p7
g2
Ntp8
Rp9
(dp10
S'node'
p11
(dp12
I1
(dp13
sI2
(dp14
sI3
(dp15
sI4
(dp16
sI5
(dp17
sI6
(dp18
sI7
(dp19
sI8
(dp20
sI9
(dp21
sI10
(dp22
sI11
(dp23
sI12
(dp24
sI13
(dp25
sI14
(dp26
sI15
(dp27
sI16
(dp28
sI19
(dp29
sI20
(dp30
sI23
(dp31
sI24
(dp32
sI28
(dp33
sI29
(dp34
sI30
(dp35
sI35
(dp36
sI36
(dp37
sI37
(dp38
sI38
(dp39
sI42
(dp40
sI43
(dp41
sI44
(dp42
sI51
(dp43
sI52
(dp44
sI53
(dp45
sI54
(dp46
sI55
(dp47
sI56
(dp48
sI59
(dp49
sI60
(dp50
sI63
(dp51
sI64
(dp52
sI65
(dp53
sI66
(dp54
sI68
(dp55
sI70
(dp56
sI71
(dp57
sI72
(dp58
sI73
(dp59
sI76
(dp60
sI77
(dp61
sI80
(dp62
sI81
(dp63
sI82
(dp64
sI85
(dp65
sI86
(dp66
sI90
(dp67
sI91
(dp68
sI92
(dp69
sI93
(dp70
sI98
(dp71
sI99
(dp72
sI100
(dp73
sI101
(dp74
sI102
(dp75
sI105
(dp76
sI106
(dp77
sI110
(dp78
sI112
(dp79
sI113
(dp80
sI114
(dp81
sI115
(dp82
sI116
(dp83
sI117
(dp84
sI126
(dp85
sI127
(dp86
sI128
(dp87
sI129
(dp88
sI130
(dp89
sI131
(dp90
sI132
(dp91
sI133
(dp92
sI134
(dp93
sI139
(dp94
sI144
(dp95
sI145
(dp96
sI146
(dp97
sI147
(dp98
sI152
(dp99
sI155
(dp100
sI156
(dp101
sI160
(dp102
sI161
(dp103
sI162
(dp104
sI165
(dp105
sI166
(dp106
sI167
(dp107
sI168
(dp108
sI169
(dp109
sI172
(dp110
sI173
(dp111
sI177
(dp112
sI178
(dp113
sI179
(dp114
sI185
(dp115
sI186
(dp116
sI187
(dp117
sI188
(dp118
sI189
(dp119
sI190
(dp120
sI195
(dp121
sI196
(dp122
sI197
(dp123
sI198
(dp124
sI199
(dp125
sI202
(dp126
sI203
(dp127
sI206
(dp128
sI207
(dp129
sI209
(dp130
sI210
(dp131
sI211
(dp132
sI213
(dp133
sI214
(dp134
sI215
(dp135
sI216
(dp136
sI217
(dp137
sI220
(dp138
sI221
(dp139
sI222
(dp140
sI223
(dp141
sI227
(dp142
sI228
(dp143
sI231
(dp144
sI232
(dp145
sI238
(dp146
sI246
(dp147
sI247
(dp148
sI248
(dp149
sI249
(dp150
sI250
(dp151
sI251
(dp152
sI254
(dp153
sI255
(dp154
sI258
(dp155
sI259
(dp156
sI263
(dp157
sI264
(dp158
sI265
(dp159
sI268
(dp160
sI269
(dp161
sI270
(dp162
sI271
(dp163
sI273
(dp164
sI275
(dp165
sI276
(dp166
sI277
(dp167
sI278
(dp168
sI279
(dp169
sI286
(dp170
sI287
(dp171
sI288
(dp172
sI289
(dp173
sI290
(dp174
sI291
(dp175
sI294
(dp176
sI295
(dp177
sI299
(dp178
sI300
(dp179
sI301
(dp180
sI305
(dp181
sI306
(dp182
sI307
(dp183
sI308
(dp184
sI312
(dp185
sI313
(dp186
sI314
(dp187
sI315
(dp188
sI318
(dp189
sI320
(dp190
sI321
(dp191
sI322
(dp192
sI323
(dp193
sI327
(dp194
sI328
(dp195
sI329
(dp196
sI336
(dp197
sI337
(dp198
sI338
(dp199
sI339
(dp200
sI340
(dp201
sI341
(dp202
sI347
(dp203
sI348
(dp204
sI349
(dp205
sI350
(dp206
sI351
(dp207
sI353
(dp208
sI354
(dp209
sI357
(dp210
sI359
(dp211
sI366
(dp212
sI369
(dp213
sI370
(dp214
sI371
(dp215
sI372
(dp216
sI377
(dp217
sI378
(dp218
sI379
(dp219
sI380
(dp220
sI381
(dp221
sI382
(dp222
sI383
(dp223
sI384
(dp224
sI385
(dp225
sI386
(dp226
sI387
(dp227
sI388
(dp228
sI389
(dp229
sI390
(dp230
sI391
(dp231
sI392
(dp232
sI393
(dp233
sI397
(dp234
sI398
(dp235
sI399
(dp236
sI401
(dp237
sI407
(dp238
sI408
(dp239
sI409
(dp240
sI410
(dp241
sI411
(dp242
sI412
(dp243
sI416
(dp244
sI418
(dp245
sI419
(dp246
sI420
(dp247
sI421
(dp248
sI422
(dp249
sI430
(dp250
sI431
(dp251
sI432
(dp252
sI438
(dp253
sI439
(dp254
sI440
(dp255
sI441
(dp256
sI442
(dp257
sI450
(dp258
sI451
(dp259
sI454
(dp260
sI455
(dp261
sI458
(dp262
sI459
(dp263
sI462
(dp264
sI463
(dp265
sI467
(dp266
sI468
(dp267
sI469
(dp268
sI472
(dp269
sI473
(dp270
sI474
(dp271
sI477
(dp272
sI478
(dp273
sI481
(dp274
sI482
(dp275
sI485
(dp276
sI486
(dp277
sI490
(dp278
sI491
(dp279
sI492
(dp280
sI496
(dp281
sI497
(dp282
sI498
(dp283
sI499
(dp284
sI504
(dp285
sI505
(dp286
sI506
(dp287
sI507
(dp288
sI510
(dp289
sI511
(dp290
sI512
(dp291
sI513
(dp292
sI514
(dp293
sI521
(dp294
sI522
(dp295
sI523
(dp296
sI524
(dp297
sI525
(dp298
sI526
(dp299
sI531
(dp300
sI532
(dp301
sI533
(dp302
sI534
(dp303
sI538
(dp304
sI539
(dp305
sI540
(dp306
sI541
(dp307
sI545
(dp308
sI546
(dp309
sI547
(dp310
sI548
(dp311
sI549
(dp312
sI556
(dp313
sI557
(dp314
sI558
(dp315
sI559
(dp316
sI560
(dp317
sI561
(dp318
sI564
(dp319
sI566
(dp320
sI567
(dp321
sI568
(dp322
sI572
(dp323
sI573
(dp324
sI574
(dp325
sI577
(dp326
sI578
(dp327
sI581
(dp328
sI582
(dp329
sI584
(dp330
sI586
(dp331
sI587
(dp332
sI588
(dp333
sI595
(dp334
sI596
(dp335
sI597
(dp336
sI598
(dp337
sI599
(dp338
sI600
(dp339
sI604
(dp340
sI605
(dp341
sI606
(dp342
sI609
(dp343
sI610
(dp344
sI613
(dp345
sI614
(dp346
sI617
(dp347
sI618
(dp348
sI623
(dp349
sI624
(dp350
sI625
(dp351
sI626
(dp352
sI627
(dp353
sI630
(dp354
sI631
(dp355
sI634
(dp356
sI635
(dp357
sI636
(dp358
sI637
(dp359
sI639
(dp360
sI641
(dp361
sI642
(dp362
sI643
(dp363
sI644
(dp364
sI645
(dp365
sI646
(dp366
sI647
(dp367
sI650
(dp368
sI651
(dp369
sI652
(dp370
sI653
(dp371
sI654
(dp372
sI655
(dp373
sI656
(dp374
sI674
(dp375
sI675
(dp376
sI676
(dp377
sI677
(dp378
sI680
(dp379
sI681
(dp380
sI682
(dp381
sI686
(dp382
sI687
(dp383
sI688
(dp384
sI689
(dp385
sI690
(dp386
sI691
(dp387
sI692
(dp388
sI693
(dp389
sI694
(dp390
sI695
(dp391
sI696
(dp392
sI697
(dp393
sI698
(dp394
sI699
(dp395
sI700
(dp396
sI701
(dp397
sI704
(dp398
sI705
(dp399
sI708
(dp400
sI709
(dp401
sI710
(dp402
sI713
(dp403
sI714
(dp404
sI719
(dp405
sI720
(dp406
sI721
(dp407
sI722
(dp408
sI727
(dp409
sI728
(dp410
sI729
(dp411
sI737
(dp412
sI738
(dp413
sI744
(dp414
sI745
(dp415
sI748
(dp416
sI749
(dp417
sI750
(dp418
sI751
(dp419
sI752
(dp420
sI755
(dp421
sI756
(dp422
sI758
(dp423
sI760
(dp424
sI761
(dp425
sI762
(dp426
sI766
(dp427
sI767
(dp428
sI768
(dp429
sI769
(dp430
sI772
(dp431
sI773
(dp432
sI776
(dp433
sI777
(dp434
sI781
(dp435
sI782
(dp436
sI783
(dp437
sI784
(dp438
sI785
(dp439
sI786
(dp440
sI787
(dp441
sI788
(dp442
sI789
(dp443
sI794
(dp444
sI795
(dp445
sI798
(dp446
sI799
(dp447
sI801
(dp448
sI803
(dp449
sI804
(dp450
sI805
(dp451
sI810
(dp452
sI811
(dp453
sI812
(dp454
sI813
(dp455
sI814
(dp456
sI821
(dp457
sI822
(dp458
sI823
(dp459
sI824
(dp460
sI825
(dp461
sI826
(dp462
sI830
(dp463
sI831
(dp464
sI832
(dp465
sI833
(dp466
sI836
(dp467
sI837
(dp468
sI838
(dp469
sI839
(dp470
sI840
(dp471
sI841
(dp472
sI842
(dp473
sI845
(dp474
sI846
(dp475
sI849
(dp476
sI850
(dp477
sI855
(dp478
sI856
(dp479
sI857
(dp480
sI858
(dp481
sI862
(dp482
sI863
(dp483
sI864
(dp484
sI867
(dp485
sI868
(dp486
sI869
(dp487
sI872
(dp488
sI873
(dp489
sI874
(dp490
sI875
(dp491
sI876
(dp492
sI877
(dp493
sI878
(dp494
sI879
(dp495
sI880
(dp496
sI881
(dp497
sI882
(dp498
sI891
(dp499
sI892
(dp500
sI893
(dp501
sI894
(dp502
sI895
(dp503
sI896
(dp504
sI897
(dp505
sI898
(dp506
sI899
(dp507
sI900
(dp508
sI901
(dp509
sI902
(dp510
sI903
(dp511
sI904
(dp512
sI905
(dp513
sI906
(dp514
sI907
(dp515
sI908
(dp516
sI909
(dp517
sI910
(dp518
sI911
(dp519
sI912
(dp520
sI913
(dp521
sI914
(dp522
sI915
(dp523
sI916
(dp524
sI917
(dp525
sI918
(dp526
sI919
(dp527
sI920
(dp528
sI921
(dp529
sI922
(dp530
sI923
(dp531
sI924
(dp532
sI925
(dp533
sI926
(dp534
sI927
(dp535
sI928
(dp536
sI929
(dp537
sI930
(dp538
sI931
(dp539
sI937
(dp540
sI938
(dp541
sI939
(dp542
sI940
(dp543
sI941
(dp544
sI944
(dp545
sI945
(dp546
sI946
(dp547
sI947
(dp548
sI948
(dp549
sI949
(dp550
sI950
(dp551
sI953
(dp552
sI954
(dp553
sI955
(dp554
sI958
(dp555
sI959
(dp556
sI962
(dp557
sI963
(dp558
sI966
(dp559
sI967
(dp560
sI970
(dp561
sI971
(dp562
sI975
(dp563
sI976
(dp564
sI983
(dp565
sI984
(dp566
sI985
(dp567
sI986
(dp568
sI987
(dp569
sI988
(dp570
sI992
(dp571
sI993
(dp572
sI994
(dp573
sI998
(dp574
sI999
(dp575
sI1000
(dp576
sI1003
(dp577
sI1004
(dp578
sI1010
(dp579
sI1011
(dp580
sI1012
(dp581
sI1013
(dp582
sI1014
(dp583
sI1016
(dp584
sI1017
(dp585
sI1019
(dp586
sI1020
(dp587
sI1021
(dp588
sI1022
(dp589
sI1025
(dp590
sI1026
(dp591
sI1027
(dp592
sI1030
(dp593
sI1031
(dp594
sI1032
(dp595
sI1035
(dp596
sI1036
(dp597
sI1039
(dp598
sI1040
(dp599
sI1041
(dp600
sI1044
(dp601
sI1045
(dp602
sI1046
(dp603
sI1064
(dp604
sI1065
(dp605
sI1066
(dp606
sI1067
(dp607
sI1070
(dp608
sI1071
(dp609
sI1074
(dp610
sI1075
(dp611
sI1078
(dp612
sI1079
(dp613
sI1082
(dp614
sI1083
(dp615
sI1084
(dp616
sI1085
(dp617
sI1086
(dp618
sI1087
(dp619
sI1094
(dp620
sI1095
(dp621
sI1100
(dp622
sI1101
(dp623
sI1102
(dp624
sI1105
(dp625
sI1106
(dp626
sI1109
(dp627
sI1110
(dp628
sI1122
(dp629
sI1123
(dp630
sI1124
(dp631
sI1125
(dp632
sI1126
(dp633
sI1129
(dp634
sI1130
(dp635
sI1133
(dp636
sI1137
(dp637
sI1138
(dp638
sI1139
(dp639
sI1140
(dp640
sI1141
(dp641
sI1144
(dp642
sI1145
(dp643
sI1150
(dp644
sI1151
(dp645
sI1152
(dp646
sI1153
(dp647
sI1159
(dp648
sI1160
(dp649
sI1161
(dp650
sI1162
(dp651
sI1163
(dp652
sI1164
(dp653
sI1165
(dp654
sI1169
(dp655
sI1170
(dp656
sI1171
(dp657
sI1175
(dp658
sI1176
(dp659
sI1177
(dp660
sI1178
(dp661
sI1181
(dp662
sI1182
(dp663
sI1185
(dp664
sI1186
(dp665
sI1189
(dp666
sI1190
(dp667
sI1191
(dp668
sI1192
(dp669
sI1193
(dp670
sI1194
(dp671
sI1195
(dp672
sI1200
(dp673
sI1201
(dp674
sI1202
(dp675
sI1203
(dp676
sI1211
(dp677
sI1212
(dp678
sI1213
(dp679
sI1214
(dp680
sI1215
(dp681
sI1216
(dp682
sI1221
(dp683
sI1222
(dp684
sI1223
(dp685
sI1224
(dp686
sI1233
(dp687
sI1234
(dp688
sI1235
(dp689
sI1236
(dp690
sI1237
(dp691
sI1238
(dp692
sI1239
(dp693
sI1240
(dp694
sI1244
(dp695
sI1245
(dp696
sI1246
(dp697
sI1247
(dp698
sI1248
(dp699
sI1249
(dp700
sI1250
(dp701
sI1251
(dp702
sI1252
(dp703
sI1253
(dp704
sI1254
(dp705
sI1255
(dp706
sI1256
(dp707
sI1257
(dp708
sI1258
(dp709
sI1259
(dp710
sI1263
(dp711
sI1264
(dp712
sI1265
(dp713
sI1267
(dp714
sI1268
(dp715
sI1270
(dp716
sI1271
(dp717
sI1272
(dp718
sI1276
(dp719
sI1277
(dp720
sI1281
(dp721
sI1282
(dp722
sI1283
(dp723
sI1285
(dp724
sI1287
(dp725
sI1288
(dp726
sI1289
(dp727
sI1292
(dp728
sI1293
(dp729
sI1295
(dp730
sI1297
(dp731
sI1298
(dp732
sI1299
(dp733
sI1304
(dp734
sI1305
(dp735
sI1308
(dp736
sI1309
(dp737
sI1312
(dp738
sI1313
(dp739
sI1314
(dp740
sI1317
(dp741
sI1318
(dp742
sI1328
(dp743
sI1329
(dp744
sI1330
(dp745
sI1331
(dp746
sI1335
(dp747
sI1336
(dp748
sI1339
(dp749
sI1340
(dp750
sI1341
(dp751
sI1342
(dp752
sI1343
(dp753
sI1344
(dp754
sI1345
(dp755
sI1350
(dp756
sI1351
(dp757
sI1352
(dp758
sI1353
(dp759
sI1354
(dp760
sI1355
(dp761
sI1356
(dp762
sI1357
(dp763
sI1358
(dp764
sI1359
(dp765
sI1360
(dp766
sI1361
(dp767
sI1362
(dp768
sI1365
(dp769
sI1367
(dp770
sI1368
(dp771
sI1369
(dp772
sI1370
(dp773
sI1371
(dp774
sI1372
(dp775
sI1373
(dp776
sI1374
(dp777
sI1375
(dp778
sI1376
(dp779
sI1377
(dp780
sI1378
(dp781
sI1379
(dp782
sI1380
(dp783
sI1381
(dp784
sI1382
(dp785
sI1383
(dp786
sI1386
(dp787
sI1387
(dp788
sI1390
(dp789
sI1391
(dp790
sI1394
(dp791
sI1395
(dp792
sI1396
(dp793
sI1397
(dp794
sI1398
(dp795
sI1402
(dp796
sI1403
(dp797
sI1404
(dp798
sI1405
(dp799
sI1410
(dp800
sI1411
(dp801
sI1412
(dp802
sI1413
(dp803
sI1416
(dp804
sI1417
(dp805
sI1419
(dp806
sI1421
(dp807
sI1422
(dp808
sI1423
(dp809
sI1424
(dp810
sI1427
(dp811
sI1429
(dp812
sI1430
(dp813
sI1431
(dp814
sI1432
(dp815
sI1442
(dp816
sI1443
(dp817
sI1445
(dp818
sI1447
(dp819
sI1448
(dp820
sI1449
(dp821
sI1452
(dp822
sI1453
(dp823
sI1457
(dp824
sI1458
(dp825
sI1459
(dp826
sI1460
(dp827
sI1464
(dp828
sI1465
(dp829
sI1466
(dp830
sI1467
(dp831
sI1470
(dp832
sI1471
(dp833
sI1475
(dp834
sI1476
(dp835
sI1477
(dp836
sI1478
(dp837
sI1479
(dp838
sI1480
(dp839
sI1481
(dp840
sI1484
(dp841
sI1485
(dp842
sI1486
(dp843
sI1487
(dp844
sI1488
(dp845
sI1489
(dp846
sI1490
(dp847
sI1493
(dp848
sI1494
(dp849
sI1497
(dp850
sI1498
(dp851
sI1501
(dp852
sI1502
(dp853
sI1506
(dp854
sI1507
(dp855
sI1508
(dp856
sI1518
(dp857
sI1519
(dp858
sI1522
(dp859
sI1523
(dp860
sI1524
(dp861
sI1527
(dp862
sI1529
(dp863
sI1530
(dp864
sI1531
(dp865
sI1538
(dp866
sI1539
(dp867
sI1540
(dp868
sI1541
(dp869
sI1542
(dp870
sI1545
(dp871
sI1546
(dp872
sI1547
(dp873
sI1548
(dp874
sI1549
(dp875
sI1553
(dp876
sI1554
(dp877
sI1557
(dp878
sI1558
(dp879
sI1561
(dp880
sI1562
(dp881
sI1566
(dp882
sI1567
(dp883
sI1568
(dp884
sI1571
(dp885
sI1572
(dp886
sI1576
(dp887
sI1577
(dp888
sI1578
(dp889
sI1583
(dp890
sI1584
(dp891
sI1585
(dp892
sI1586
(dp893
sI1589
(dp894
sI1590
(dp895
sI1593
(dp896
sI1594
(dp897
sI1598
(dp898
sI1599
(dp899
sI1600
(dp900
sI1601
(dp901
sI1602
(dp902
sI1603
(dp903
sI1604
(dp904
sI1611
(dp905
sI1612
(dp906
sI1613
(dp907
sI1614
(dp908
sI1615
(dp909
sI1616
(dp910
sI1617
(dp911
sI1621
(dp912
sI1622
(dp913
sI1623
(dp914
sI1624
(dp915
sI1625
(dp916
sI1626
(dp917
sI1627
(dp918
sI1628
(dp919
sI1629
(dp920
sI1630
(dp921
sI1634
(dp922
sI1635
(dp923
sI1636
(dp924
sI1639
(dp925
sI1640
(dp926
sI1643
(dp927
sI1644
(dp928
sI1650
(dp929
sI1651
(dp930
sI1654
(dp931
sI1656
(dp932
sI1657
(dp933
sI1658
(dp934
sI1659
(dp935
sI1664
(dp936
sI1665
(dp937
sI1666
(dp938
sI1667
(dp939
sI1670
(dp940
sI1671
(dp941
sI1672
(dp942
sI1678
(dp943
sI1684
(dp944
sI1685
(dp945
sI1686
(dp946
sI1687
(dp947
sI1688
(dp948
sI1692
(dp949
sI1693
(dp950
sI1694
(dp951
sI1697
(dp952
sI1698
(dp953
sI1702
(dp954
sI1703
(dp955
sI1704
(dp956
sI1707
(dp957
sI1708
(dp958
sI1711
(dp959
sI1712
(dp960
sI1715
(dp961
sI1716
(dp962
sI1717
(dp963
sI1718
(dp964
sI1719
(dp965
sI1720
(dp966
sI1723
(dp967
sI1724
(dp968
sI1729
(dp969
sI1730
(dp970
sI1731
(dp971
sI1734
(dp972
sI1735
(dp973
sI1736
(dp974
sI1737
(dp975
sI1738
(dp976
sI1740
(dp977
sI1743
(dp978
sI1744
(dp979
sI1745
(dp980
sI1746
(dp981
sI1749
(dp982
sI1750
(dp983
sI1751
(dp984
sI1754
(dp985
sI1755
(dp986
sI1758
(dp987
sI1759
(dp988
sI1760
(dp989
sI1763
(dp990
sI1764
(dp991
sI1767
(dp992
sI1768
(dp993
sI1771
(dp994
sI1772
(dp995
sI1773
(dp996
sI1777
(dp997
sI1778
(dp998
sI1779
(dp999
sI1780
(dp1000
sI1784
(dp1001
sI1785
(dp1002
sI1786
(dp1003
sI1787
(dp1004
sI1788
(dp1005
sI1791
(dp1006
sI1792
(dp1007
sI1793
(dp1008
sI1811
(dp1009
sI1812
(dp1010
sI1813
(dp1011
sI1814
(dp1012
sI1818
(dp1013
sI1819
(dp1014
sI1822
(dp1015
sI1823
(dp1016
sI1824
(dp1017
sI1825
(dp1018
sI1826
(dp1019
sI1827
(dp1020
sI1828
(dp1021
sI1831
(dp1022
sI1832
(dp1023
sI1833
(dp1024
sI1834
(dp1025
sI1835
(dp1026
sI1839
(dp1027
sI1840
(dp1028
sI1841
(dp1029
sI1842
(dp1030
sI1845
(dp1031
sI1846
(dp1032
sI1851
(dp1033
sI1852
(dp1034
sI1853
(dp1035
sI1854
(dp1036
sI1857
(dp1037
sI1858
(dp1038
sI1859
(dp1039
sI1862
(dp1040
sI1863
(dp1041
sI1866
(dp1042
sI1867
(dp1043
sI1870
(dp1044
sI1871
(dp1045
sI1872
(dp1046
sI1876
(dp1047
sI1877
(dp1048
sI1879
(dp1049
sI1885
(dp1050
sI1886
(dp1051
sI1887
(dp1052
sI1888
(dp1053
sI1889
(dp1054
sI1890
(dp1055
sI1891
(dp1056
sI1895
(dp1057
sI1896
(dp1058
sI1899
(dp1059
sI1900
(dp1060
sI1902
(dp1061
sI1903
(dp1062
sI1905
(dp1063
sI1906
(dp1064
sI1907
(dp1065
sI1908
(dp1066
sI1911
(dp1067
sI1912
(dp1068
sI1914
(dp1069
sI1920
(dp1070
sI1921
(dp1071
sI1922
(dp1072
sI1923
(dp1073
sI1924
(dp1074
sI1925
(dp1075
sI1926
(dp1076
sI1929
(dp1077
sI1930
(dp1078
sI1931
(dp1079
sI1932
(dp1080
sI1935
(dp1081
sI1936
(dp1082
sI1937
(dp1083
sI1938
(dp1084
sI1941
(dp1085
sI1942
(dp1086
sI1945
(dp1087
sI1946
(dp1088
sI1947
(dp1089
sI1948
(dp1090
sI1949
(dp1091
sI1952
(dp1092
sI1953
(dp1093
sI1954
(dp1094
sI1955
(dp1095
sI1956
(dp1096
sI1957
(dp1097
sI1958
(dp1098
sI1959
(dp1099
sI1960
(dp1100
sI1963
(dp1101
sI1964
(dp1102
sI1967
(dp1103
sI1968
(dp1104
sI1969
(dp1105
sI1970
(dp1106
sI1971
(dp1107
sI1972
(dp1108
sI1973
(dp1109
sI1978
(dp1110
sI1979
(dp1111
sI1980
(dp1112
sI1981
(dp1113
sI1985
(dp1114
sI1986
(dp1115
sI1987
(dp1116
sI1996
(dp1117
sI1997
(dp1118
sI1998
(dp1119
sI1999
(dp1120
sI2000
(dp1121
sI2001
(dp1122
sI2002
(dp1123
sI2003
(dp1124
sI2009
(dp1125
sI2010
(dp1126
sI2011
(dp1127
sI2012
(dp1128
sI2013
(dp1129
sI2014
(dp1130
sI2015
(dp1131
sI2016
(dp1132
sI2017
(dp1133
sI2018
(dp1134
sI2019
(dp1135
sI2020
(dp1136
sI2021
(dp1137
sI2022
(dp1138
sI2023
(dp1139
sI2024
(dp1140
sI2025
(dp1141
sI2026
(dp1142
sI2027
(dp1143
sI2028
(dp1144
sI2029
(dp1145
sI2030
(dp1146
sI2031
(dp1147
sI2032
(dp1148
sI2033
(dp1149
sI2034
(dp1150
sI2038
(dp1151
sI2039
(dp1152
sI2040
(dp1153
sI2043
(dp1154
sI2044
(dp1155
sI2047
(dp1156
sI2048
(dp1157
sI2049
(dp1158
sI2052
(dp1159
sI2053
(dp1160
sI2057
(dp1161
sI2058
(dp1162
sI2059
(dp1163
sI2060
(dp1164
sI2061
(dp1165
sI2062
(dp1166
sI2063
(dp1167
sI2064
(dp1168
sI2065
(dp1169
sI2066
(dp1170
sI2067
(dp1171
sI2068
(dp1172
sI2069
(dp1173
sI2070
(dp1174
sI2071
(dp1175
sI2072
(dp1176
sI2073
(dp1177
sI2074
(dp1178
sI2075
(dp1179
sI2079
(dp1180
sI2080
(dp1181
sI2083
(dp1182
sI2084
(dp1183
sI2085
(dp1184
sI2088
(dp1185
sI2089
(dp1186
sI2090
(dp1187
sI2091
(dp1188
sI2092
(dp1189
sI2093
(dp1190
sI2094
(dp1191
sI2097
(dp1192
sI2098
(dp1193
sI2102
(dp1194
sI2103
(dp1195
sI2104
(dp1196
sI2105
(dp1197
sI2108
(dp1198
sI2109
(dp1199
sI2110
(dp1200
sI2114
(dp1201
sI2115
(dp1202
sI2116
(dp1203
sI2117
(dp1204
sI2118
(dp1205
sI2121
(dp1206
sI2122
(dp1207
sI2126
(dp1208
sI2127
(dp1209
sI2128
(dp1210
sI2131
(dp1211
sI2132
(dp1212
sI2135
(dp1213
sI2136
(dp1214
sI2139
(dp1215
sI2140
(dp1216
sI2144
(dp1217
sI2145
(dp1218
sI2146
(dp1219
sI2151
(dp1220
sI2152
(dp1221
sI2153
(dp1222
sI2154
(dp1223
sI2156
(dp1224
sI2158
(dp1225
sI2159
(dp1226
sI2160
(dp1227
sI2161
(dp1228
sI2162
(dp1229
sI2165
(dp1230
sI2166
(dp1231
sI2169
(dp1232
sI2170
(dp1233
sI2173
(dp1234
sI2174
(dp1235
sI2175
(dp1236
sI2178
(dp1237
sI2179
(dp1238
sI2182
(dp1239
sI2183
(dp1240
sI2186
(dp1241
sI2187
(dp1242
sI2189
(dp1243
sI2191
(dp1244
sI2192
(dp1245
sI2193
(dp1246
sI2196
(dp1247
sI2197
(dp1248
sI2200
(dp1249
sI2201
(dp1250
sI2202
(dp1251
sI2203
(dp1252
sI2204
(dp1253
sI2205
(dp1254
sI2206
(dp1255
sI2207
(dp1256
sI2208
(dp1257
sI2209
(dp1258
sI2210
(dp1259
sI2213
(dp1260
sI2214
(dp1261
sI2215
(dp1262
sI2218
(dp1263
sI2219
(dp1264
sI2220
(dp1265
sI2221
(dp1266
sI2224
(dp1267
sI2225
(dp1268
sI2226
(dp1269
sI2230
(dp1270
sI2231
(dp1271
sI2232
(dp1272
sI2233
(dp1273
sI2234
(dp1274
sI2237
(dp1275
sI2238
(dp1276
sI2239
(dp1277
sI2240
(dp1278
sI2241
(dp1279
sI2244
(dp1280
sI2247
(dp1281
sI2248
(dp1282
sI2251
(dp1283
sI2252
(dp1284
sI2253
(dp1285
sI2254
(dp1286
sI2255
(dp1287
sI2256
(dp1288
sI2257
(dp1289
sI2260
(dp1290
sI2261
(dp1291
sI2262
(dp1292
sI2263
(dp1293
sI2264
(dp1294
sI2265
(dp1295
sI2266
(dp1296
sI2267
(dp1297
sI2273
(dp1298
sI2274
(dp1299
sI2275
(dp1300
sI2276
(dp1301
sI2277
(dp1302
sI2280
(dp1303
sI2281
(dp1304
sI2282
(dp1305
sI2286
(dp1306
sI2287
(dp1307
sI2288
(dp1308
sI2289
(dp1309
sI2292
(dp1310
sI2294
(dp1311
sI2295
(dp1312
sI2296
(dp1313
sI2297
(dp1314
sI2298
(dp1315
sI2302
(dp1316
sI2303
(dp1317
sI2304
(dp1318
sI2307
(dp1319
sI2308
(dp1320
sI2309
(dp1321
sI2312
(dp1322
sI2313
(dp1323
sI2316
(dp1324
sI2317
(dp1325
sI2320
(dp1326
sI2321
(dp1327
sI2324
(dp1328
sI2325
(dp1329
sI2329
(dp1330
sI2330
(dp1331
sI2331
(dp1332
sI2332
(dp1333
sI2333
(dp1334
sI2334
(dp1335
sI2335
(dp1336
sI2338
(dp1337
sI2339
(dp1338
sI2340
(dp1339
sI2341
(dp1340
sI2344
(dp1341
sI2345
(dp1342
sI2346
(dp1343
sI2347
(dp1344
sI2348
(dp1345
sI2349
(dp1346
sI2350
(dp1347
sI2355
(dp1348
sI2356
(dp1349
sI2357
(dp1350
sI2358
(dp1351
sI2360
(dp1352
sI2366
(dp1353
sI2367
(dp1354
sI2368
(dp1355
sI2369
(dp1356
sI2372
(dp1357
sI2373
(dp1358
sI2374
(dp1359
sI2375
(dp1360
sI2376
(dp1361
sI2377
(dp1362
sI2378
(dp1363
sI2379
(dp1364
sI2380
(dp1365
sI2381
(dp1366
sI2385
(dp1367
sI2389
(dp1368
sI2390
(dp1369
sI2391
(dp1370
sI2392
(dp1371
sI2393
(dp1372
sI2394
(dp1373
sI2395
(dp1374
sI2401
(dp1375
sI2402
(dp1376
sI2403
(dp1377
sI2404
(dp1378
sI2405
(dp1379
sI2409
(dp1380
sI2411
(dp1381
sI2412
(dp1382
sI2413
(dp1383
sI2414
(dp1384
sI2415
(dp1385
sI2421
(dp1386
sI2422
(dp1387
sI2425
(dp1388
sI2426
(dp1389
sI2430
(dp1390
sI2431
(dp1391
sI2432
(dp1392
sI2434
(dp1393
sI2436
(dp1394
sI2437
(dp1395
sI2438
(dp1396
sI2441
(dp1397
sI2442
(dp1398
sI2447
(dp1399
sI2448
(dp1400
sI2449
(dp1401
sI2452
(dp1402
sI2453
(dp1403
sI2456
(dp1404
sI2457
(dp1405
sI2460
(dp1406
sI2461
(dp1407
sI2464
(dp1408
sI2465
(dp1409
sI2469
(dp1410
sI2470
(dp1411
sI2471
(dp1412
sI2472
(dp1413
sI2473
(dp1414
sI2474
(dp1415
sI2475
(dp1416
ssS'graph'
p1417
(dp1418
sS'succ'
p1419
(dp1420
I1
(dp1421
I8
(dp1422
sI6
(dp1423
sI7
(dp1424
ssI2
(dp1425
I8
(dp1426
sI9
(dp1427
sI10
(dp1428
ssI3
(dp1429
I10
(dp1430
sI11
(dp1431
sI12
(dp1432
ssI4
(dp1433
I12
(dp1434
sI13
(dp1435
sI14
(dp1436
ssI5
(dp1437
I16
(dp1438
sI14
(dp1439
sI15
(dp1440
ssI6
(dp1441
I28
(dp1442
sI29
(dp1443
ssI7
(dp1444
I20
(dp1445
ssI8
(dp1446
I19
(dp1447
sI20
(dp1448
ssI9
(dp1449
I35
(dp1450
sI36
(dp1451
sI37
(dp1452
sI38
(dp1453
ssI10
(dp1454
I24
(dp1455
sI23
(dp1456
ssI11
(dp1457
I29
(dp1458
sI30
(dp1459
ssI12
(dp1460
I70
(dp1461
ssI13
(dp1462
I51
(dp1463
sI52
(dp1464
sI53
(dp1465
sI54
(dp1466
sI55
(dp1467
sI56
(dp1468
ssI14
(dp1469
I24
(dp1470
sI23
(dp1471
ssI15
(dp1472
I35
(dp1473
sI36
(dp1474
sI37
(dp1475
sI38
(dp1476
ssI16
(dp1477
I42
(dp1478
sI43
(dp1479
sI44
(dp1480
ssI19
(dp1481
I35
(dp1482
sI36
(dp1483
sI37
(dp1484
sI38
(dp1485
ssI20
(dp1486
I30
(dp1487
ssI23
(dp1488
I76
(dp1489
sI77
(dp1490
ssI24
(dp1491
I35
(dp1492
sI36
(dp1493
sI37
(dp1494
sI38
(dp1495
ssI28
(dp1496
I51
(dp1497
sI52
(dp1498
sI53
(dp1499
sI54
(dp1500
sI55
(dp1501
sI56
(dp1502
ssI29
(dp1503
I51
(dp1504
sI52
(dp1505
sI53
(dp1506
sI54
(dp1507
sI55
(dp1508
sI56
(dp1509
ssI30
(dp1510
I73
(dp1511
ssI35
(dp1512
I42
(dp1513
sI43
(dp1514
sI44
(dp1515
ssI36
(dp1516
I51
(dp1517
sI52
(dp1518
sI53
(dp1519
sI54
(dp1520
sI55
(dp1521
sI56
(dp1522
ssI37
(dp1523
I42
(dp1524
sI43
(dp1525
sI44
(dp1526
ssI38
(dp1527
I51
(dp1528
sI52
(dp1529
sI53
(dp1530
sI54
(dp1531
sI55
(dp1532
sI56
(dp1533
ssI42
(dp1534
I51
(dp1535
sI52
(dp1536
sI53
(dp1537
sI54
(dp1538
sI55
(dp1539
sI56
(dp1540
ssI43
(dp1541
I72
(dp1542
sI73
(dp1543
ssI44
(dp1544
I60
(dp1545
ssI51
(dp1546
I86
(dp1547
ssI52
(dp1548
I80
(dp1549
sI81
(dp1550
ssI53
(dp1551
I126
(dp1552
sI127
(dp1553
ssI54
(dp1554
I59
(dp1555
sI60
(dp1556
ssI55
(dp1557
I105
(dp1558
sI106
(dp1559
ssI56
(dp1560
I92
(dp1561
ssI59
(dp1562
I70
(dp1563
ssI60
(dp1564
I100
(dp1565
sI101
(dp1566
ssI63
(dp1567
I70
(dp1568
sI71
(dp1569
ssI64
(dp1570
I71
(dp1571
ssI65
(dp1572
I72
(dp1573
sI71
(dp1574
ssI66
(dp1575
I72
(dp1576
ssI68
(dp1577
I73
(dp1578
ssI70
(dp1579
I147
(dp1580
ssI71
(dp1581
I76
(dp1582
sI77
(dp1583
ssI72
(dp1584
I99
(dp1585
sI100
(dp1586
ssI73
(dp1587
I132
(dp1588
sI133
(dp1589
ssI76
(dp1590
I85
(dp1591
sI86
(dp1592
ssI77
(dp1593
I81
(dp1594
sI82
(dp1595
ssI80
(dp1596
I91
(dp1597
sI92
(dp1598
ssI81
(dp1599
I90
(dp1600
sI91
(dp1601
ssI82
(dp1602
I144
(dp1603
ssI85
(dp1604
I116
(dp1605
sI117
(dp1606
ssI86
(dp1607
I102
(dp1608
ssI90
(dp1609
I131
(dp1610
sI132
(dp1611
ssI91
(dp1612
I101
(dp1613
sI102
(dp1614
ssI92
(dp1615
I113
(dp1616
sI114
(dp1617
ssI93
(dp1618
I98
(dp1619
sI99
(dp1620
ssI98
(dp1621
I128
(dp1622
sI129
(dp1623
ssI99
(dp1624
I147
(dp1625
ssI100
(dp1626
I133
(dp1627
sI134
(dp1628
ssI101
(dp1629
I105
(dp1630
sI106
(dp1631
ssI102
(dp1632
I112
(dp1633
sI113
(dp1634
ssI105
(dp1635
I114
(dp1636
sI115
(dp1637
ssI106
(dp1638
I146
(dp1639
ssI110
(dp1640
I115
(dp1641
sI116
(dp1642
ssI112
(dp1643
I129
(dp1644
sI130
(dp1645
ssI113
(dp1646
I130
(dp1647
sI131
(dp1648
ssI114
(dp1649
I185
(dp1650
sI186
(dp1651
sI187
(dp1652
sI188
(dp1653
sI189
(dp1654
ssI115
(dp1655
I155
(dp1656
ssI116
(dp1657
I168
(dp1658
sI169
(dp1659
sI167
(dp1660
ssI117
(dp1661
I128
(dp1662
sI127
(dp1663
ssI126
(dp1664
I155
(dp1665
sI156
(dp1666
ssI127
(dp1667
I156
(dp1668
ssI128
(dp1669
I177
(dp1670
sI179
(dp1671
ssI129
(dp1672
I160
(dp1673
sI161
(dp1674
ssI130
(dp1675
I144
(dp1676
sI145
(dp1677
ssI131
(dp1678
I155
(dp1679
ssI132
(dp1680
I146
(dp1681
sI147
(dp1682
ssI133
(dp1683
I145
(dp1684
ssI134
(dp1685
I144
(dp1686
ssI139
(dp1687
I145
(dp1688
sI146
(dp1689
ssI144
(dp1690
I155
(dp1691
ssI145
(dp1692
I156
(dp1693
ssI146
(dp1694
I165
(dp1695
sI166
(dp1696
sI167
(dp1697
ssI147
(dp1698
I160
(dp1699
sI162
(dp1700
ssI152
(dp1701
I156
(dp1702
ssI155
(dp1703
I161
(dp1704
sI162
(dp1705
ssI156
(dp1706
I172
(dp1707
sI173
(dp1708
ssI160
(dp1709
I203
(dp1710
ssI161
(dp1711
I246
(dp1712
sI247
(dp1713
ssI162
(dp1714
I185
(dp1715
sI186
(dp1716
sI187
(dp1717
sI188
(dp1718
sI189
(dp1719
ssI165
(dp1720
I177
(dp1721
sI178
(dp1722
ssI166
(dp1723
I178
(dp1724
sI179
(dp1725
ssI167
(dp1726
I185
(dp1727
sI186
(dp1728
sI187
(dp1729
sI188
(dp1730
sI189
(dp1731
ssI168
(dp1732
I173
(dp1733
ssI169
(dp1734
I195
(dp1735
sI199
(dp1736
ssI172
(dp1737
I185
(dp1738
sI186
(dp1739
sI187
(dp1740
sI188
(dp1741
sI189
(dp1742
ssI173
(dp1743
I248
(dp1744
sI247
(dp1745
ssI177
(dp1746
I185
(dp1747
sI186
(dp1748
sI187
(dp1749
sI188
(dp1750
sI189
(dp1751
ssI178
(dp1752
I206
(dp1753
sI207
(dp1754
ssI179
(dp1755
I207
(dp1756
ssI185
(dp1757
I197
(dp1758
sI198
(dp1759
ssI186
(dp1760
I249
(dp1761
sI250
(dp1762
ssI187
(dp1763
I198
(dp1764
sI199
(dp1765
ssI188
(dp1766
I196
(dp1767
sI197
(dp1768
ssI189
(dp1769
I217
(dp1770
sI213
(dp1771
ssI190
(dp1772
I195
(dp1773
sI196
(dp1774
ssI195
(dp1775
I228
(dp1776
ssI196
(dp1777
I202
(dp1778
sI203
(dp1779
ssI197
(dp1780
I213
(dp1781
sI214
(dp1782
ssI198
(dp1783
I258
(dp1784
sI259
(dp1785
ssI199
(dp1786
I246
(dp1787
ssI202
(dp1788
I251
(dp1789
ssI203
(dp1790
I222
(dp1791
sI223
(dp1792
ssI206
(dp1793
I227
(dp1794
sI228
(dp1795
ssI207
(dp1796
I232
(dp1797
ssI209
(dp1798
I214
(dp1799
sI215
(dp1800
ssI210
(dp1801
I216
(dp1802
sI215
(dp1803
ssI211
(dp1804
I216
(dp1805
sI217
(dp1806
ssI213
(dp1807
I251
(dp1808
ssI214
(dp1809
I248
(dp1810
sI249
(dp1811
ssI215
(dp1812
I221
(dp1813
sI222
(dp1814
ssI216
(dp1815
I268
(dp1816
sI269
(dp1817
ssI217
(dp1818
I246
(dp1819
ssI220
(dp1820
I223
(dp1821
ssI221
(dp1822
I227
(dp1823
ssI222
(dp1824
I232
(dp1825
sI231
(dp1826
ssI223
(dp1827
I250
(dp1828
sI251
(dp1829
ssI227
(dp1830
I249
(dp1831
ssI228
(dp1832
I258
(dp1833
sI259
(dp1834
ssI231
(dp1835
I250
(dp1836
ssI232
(dp1837
I247
(dp1838
ssI238
(dp1839
I248
(dp1840
ssI246
(dp1841
I255
(dp1842
ssI247
(dp1843
I288
(dp1844
sI289
(dp1845
sI290
(dp1846
sI291
(dp1847
sI286
(dp1848
sI287
(dp1849
ssI248
(dp1850
I288
(dp1851
sI289
(dp1852
sI290
(dp1853
sI291
(dp1854
sI286
(dp1855
sI287
(dp1856
ssI249
(dp1857
I254
(dp1858
sI255
(dp1859
ssI250
(dp1860
I264
(dp1861
sI265
(dp1862
ssI251
(dp1863
I264
(dp1864
sI263
(dp1865
ssI254
(dp1866
I312
(dp1867
sI313
(dp1868
sI314
(dp1869
sI315
(dp1870
ssI255
(dp1871
I265
(dp1872
sI263
(dp1873
ssI258
(dp1874
I288
(dp1875
sI289
(dp1876
sI290
(dp1877
sI291
(dp1878
sI286
(dp1879
sI287
(dp1880
ssI259
(dp1881
I294
(dp1882
sI295
(dp1883
ssI263
(dp1884
I269
(dp1885
sI270
(dp1886
ssI264
(dp1887
I276
(dp1888
sI277
(dp1889
ssI265
(dp1890
I288
(dp1891
sI289
(dp1892
sI290
(dp1893
sI291
(dp1894
sI286
(dp1895
sI287
(dp1896
ssI268
(dp1897
I295
(dp1898
ssI269
(dp1899
I288
(dp1900
sI289
(dp1901
sI290
(dp1902
sI291
(dp1903
sI286
(dp1904
sI287
(dp1905
ssI270
(dp1906
I278
(dp1907
sI279
(dp1908
ssI271
(dp1909
I276
(dp1910
ssI273
(dp1911
I277
(dp1912
sI278
(dp1913
ssI275
(dp1914
I279
(dp1915
ssI276
(dp1916
I299
(dp1917
sI300
(dp1918
sI301
(dp1919
ssI277
(dp1920
I288
(dp1921
sI289
(dp1922
sI290
(dp1923
sI291
(dp1924
sI286
(dp1925
sI287
(dp1926
ssI278
(dp1927
I347
(dp1928
sI348
(dp1929
sI349
(dp1930
sI350
(dp1931
sI351
(dp1932
ssI279
(dp1933
I336
(dp1934
sI337
(dp1935
sI338
(dp1936
sI339
(dp1937
sI340
(dp1938
sI341
(dp1939
ssI286
(dp1940
I369
(dp1941
sI370
(dp1942
ssI287
(dp1943
I299
(dp1944
sI300
(dp1945
sI301
(dp1946
ssI288
(dp1947
I336
(dp1948
sI337
(dp1949
sI338
(dp1950
sI339
(dp1951
sI340
(dp1952
sI341
(dp1953
ssI289
(dp1954
I306
(dp1955
ssI290
(dp1956
I305
(dp1957
sI306
(dp1958
sI307
(dp1959
ssI291
(dp1960
I320
(dp1961
sI321
(dp1962
sI322
(dp1963
sI323
(dp1964
ssI294
(dp1965
I312
(dp1966
sI313
(dp1967
sI314
(dp1968
sI315
(dp1969
ssI295
(dp1970
I299
(dp1971
sI300
(dp1972
sI301
(dp1973
ssI299
(dp1974
I307
(dp1975
ssI300
(dp1976
I336
(dp1977
sI337
(dp1978
sI338
(dp1979
sI339
(dp1980
sI340
(dp1981
sI341
(dp1982
ssI301
(dp1983
I336
(dp1984
sI337
(dp1985
sI338
(dp1986
sI339
(dp1987
sI340
(dp1988
sI341
(dp1989
ssI305
(dp1990
I347
(dp1991
sI348
(dp1992
sI349
(dp1993
sI350
(dp1994
sI351
(dp1995
ssI306
(dp1996
I312
(dp1997
sI313
(dp1998
sI314
(dp1999
sI315
(dp2000
ssI307
(dp2001
I320
(dp2002
sI321
(dp2003
sI322
(dp2004
sI323
(dp2005
ssI308
(dp2006
I312
(dp2007
sI313
(dp2008
sI314
(dp2009
sI315
(dp2010
ssI312
(dp2011
I320
(dp2012
sI321
(dp2013
sI322
(dp2014
sI323
(dp2015
ssI313
(dp2016
I336
(dp2017
sI337
(dp2018
sI338
(dp2019
sI339
(dp2020
sI340
(dp2021
sI341
(dp2022
ssI314
(dp2023
I328
(dp2024
sI329
(dp2025
sI327
(dp2026
ssI315
(dp2027
I347
(dp2028
sI348
(dp2029
sI349
(dp2030
sI350
(dp2031
sI351
(dp2032
ssI318
(dp2033
I320
(dp2034
sI321
(dp2035
sI322
(dp2036
sI323
(dp2037
ssI320
(dp2038
I328
(dp2039
sI329
(dp2040
sI327
(dp2041
ssI321
(dp2042
I328
(dp2043
sI329
(dp2044
sI327
(dp2045
ssI322
(dp2046
I372
(dp2047
ssI323
(dp2048
I384
(dp2049
sI385
(dp2050
sI381
(dp2051
sI382
(dp2052
sI383
(dp2053
ssI327
(dp2054
I336
(dp2055
sI337
(dp2056
sI338
(dp2057
sI339
(dp2058
sI340
(dp2059
sI341
(dp2060
ssI328
(dp2061
I371
(dp2062
sI372
(dp2063
ssI329
(dp2064
I369
(dp2065
ssI336
(dp2066
I371
(dp2067
ssI337
(dp2068
I347
(dp2069
sI348
(dp2070
sI349
(dp2071
sI350
(dp2072
sI351
(dp2073
ssI338
(dp2074
I370
(dp2075
ssI339
(dp2076
I370
(dp2077
sI371
(dp2078
ssI340
(dp2079
I431
(dp2080
ssI341
(dp2081
I347
(dp2082
sI348
(dp2083
sI349
(dp2084
sI350
(dp2085
sI351
(dp2086
ssI347
(dp2087
I372
(dp2088
ssI348
(dp2089
I372
(dp2090
ssI349
(dp2091
I369
(dp2092
ssI350
(dp2093
I371
(dp2094
ssI351
(dp2095
I371
(dp2096
ssI353
(dp2097
I369
(dp2098
ssI354
(dp2099
I369
(dp2100
ssI357
(dp2101
I370
(dp2102
ssI359
(dp2103
I370
(dp2104
ssI366
(dp2105
I372
(dp2106
ssI369
(dp2107
I377
(dp2108
sI378
(dp2109
sI379
(dp2110
sI380
(dp2111
sI381
(dp2112
ssI370
(dp2113
I432
(dp2114
ssI371
(dp2115
I385
(dp2116
sI386
(dp2117
sI387
(dp2118
sI388
(dp2119
sI389
(dp2120
ssI372
(dp2121
I392
(dp2122
sI393
(dp2123
sI389
(dp2124
sI390
(dp2125
sI391
(dp2126
ssI377
(dp2127
I430
(dp2128
ssI378
(dp2129
I398
(dp2130
sI399
(dp2131
ssI379
(dp2132
I462
(dp2133
sI463
(dp2134
ssI380
(dp2135
I485
(dp2136
sI486
(dp2137
ssI381
(dp2138
I432
(dp2139
ssI382
(dp2140
I397
(dp2141
sI398
(dp2142
ssI383
(dp2143
I451
(dp2144
ssI384
(dp2145
I419
(dp2146
sI420
(dp2147
ssI385
(dp2148
I438
(dp2149
sI439
(dp2150
ssI386
(dp2151
I407
(dp2152
ssI387
(dp2153
I412
(dp2154
ssI388
(dp2155
I408
(dp2156
sI409
(dp2157
ssI389
(dp2158
I422
(dp2159
ssI390
(dp2160
I410
(dp2161
sI411
(dp2162
ssI391
(dp2163
I473
(dp2164
sI474
(dp2165
ssI392
(dp2166
I397
(dp2167
sI399
(dp2168
ssI393
(dp2169
I411
(dp2170
sI412
(dp2171
ssI397
(dp2172
I432
(dp2173
sI431
(dp2174
ssI398
(dp2175
I451
(dp2176
ssI399
(dp2177
I409
(dp2178
sI410
(dp2179
ssI401
(dp2180
I408
(dp2181
sI407
(dp2182
ssI407
(dp2183
I418
(dp2184
sI419
(dp2185
ssI408
(dp2186
I450
(dp2187
sI451
(dp2188
ssI409
(dp2189
I430
(dp2190
ssI410
(dp2191
I430
(dp2192
sI431
(dp2193
ssI411
(dp2194
I450
(dp2195
ssI412
(dp2196
I420
(dp2197
sI421
(dp2198
ssI416
(dp2199
I421
(dp2200
sI422
(dp2201
ssI418
(dp2202
I440
(dp2203
sI441
(dp2204
ssI419
(dp2205
I492
(dp2206
ssI420
(dp2207
I467
(dp2208
sI468
(dp2209
ssI421
(dp2210
I441
(dp2211
sI442
(dp2212
ssI422
(dp2213
I451
(dp2214
ssI430
(dp2215
I442
(dp2216
ssI431
(dp2217
I450
(dp2218
ssI432
(dp2219
I440
(dp2220
sI439
(dp2221
ssI438
(dp2222
I458
(dp2223
sI459
(dp2224
ssI439
(dp2225
I454
(dp2226
sI455
(dp2227
ssI440
(dp2228
I472
(dp2229
sI473
(dp2230
ssI441
(dp2231
I507
(dp2232
ssI442
(dp2233
I450
(dp2234
ssI450
(dp2235
I454
(dp2236
sI455
(dp2237
ssI451
(dp2238
I531
(dp2239
sI534
(dp2240
ssI454
(dp2241
I482
(dp2242
ssI455
(dp2243
I458
(dp2244
sI459
(dp2245
ssI458
(dp2246
I462
(dp2247
sI463
(dp2248
ssI459
(dp2249
I468
(dp2250
sI469
(dp2251
ssI462
(dp2252
I467
(dp2253
sI469
(dp2254
ssI463
(dp2255
I572
(dp2256
ssI467
(dp2257
I481
(dp2258
sI482
(dp2259
ssI468
(dp2260
I477
(dp2261
sI478
(dp2262
ssI469
(dp2263
I498
(dp2264
ssI472
(dp2265
I485
(dp2266
sI486
(dp2267
ssI473
(dp2268
I512
(dp2269
sI513
(dp2270
ssI474
(dp2271
I478
(dp2272
ssI477
(dp2273
I574
(dp2274
ssI478
(dp2275
I490
(dp2276
sI491
(dp2277
ssI481
(dp2278
I496
(dp2279
sI497
(dp2280
ssI482
(dp2281
I491
(dp2282
sI492
(dp2283
ssI485
(dp2284
I506
(dp2285
sI507
(dp2286
ssI486
(dp2287
I523
(dp2288
ssI490
(dp2289
I497
(dp2290
sI498
(dp2291
ssI491
(dp2292
I504
(dp2293
sI505
(dp2294
ssI492
(dp2295
I512
(dp2296
ssI496
(dp2297
I595
(dp2298
sI596
(dp2299
sI597
(dp2300
sI598
(dp2301
sI599
(dp2302
sI600
(dp2303
ssI497
(dp2304
I525
(dp2305
ssI498
(dp2306
I505
(dp2307
sI506
(dp2308
ssI499
(dp2309
I504
(dp2310
ssI504
(dp2311
I560
(dp2312
sI559
(dp2313
ssI505
(dp2314
I521
(dp2315
sI522
(dp2316
sI523
(dp2317
sI524
(dp2318
sI525
(dp2319
sI526
(dp2320
ssI506
(dp2321
I524
(dp2322
ssI507
(dp2323
I545
(dp2324
sI546
(dp2325
sI547
(dp2326
sI548
(dp2327
ssI510
(dp2328
I513
(dp2329
sI514
(dp2330
ssI511
(dp2331
I514
(dp2332
ssI512
(dp2333
I545
(dp2334
sI546
(dp2335
sI547
(dp2336
sI548
(dp2337
ssI513
(dp2338
I526
(dp2339
ssI514
(dp2340
I522
(dp2341
ssI521
(dp2342
I531
(dp2343
sI532
(dp2344
ssI522
(dp2345
I532
(dp2346
sI533
(dp2347
ssI523
(dp2348
I538
(dp2349
sI539
(dp2350
ssI524
(dp2351
I539
(dp2352
sI540
(dp2353
ssI525
(dp2354
I574
(dp2355
ssI526
(dp2356
I533
(dp2357
sI534
(dp2358
ssI531
(dp2359
I540
(dp2360
ssI532
(dp2361
I557
(dp2362
sI558
(dp2363
ssI533
(dp2364
I560
(dp2365
sI561
(dp2366
ssI534
(dp2367
I558
(dp2368
sI559
(dp2369
ssI538
(dp2370
I545
(dp2371
sI546
(dp2372
sI547
(dp2373
sI548
(dp2374
ssI539
(dp2375
I561
(dp2376
ssI540
(dp2377
I574
(dp2378
ssI541
(dp2379
I545
(dp2380
sI546
(dp2381
sI547
(dp2382
sI548
(dp2383
ssI545
(dp2384
I577
(dp2385
sI578
(dp2386
ssI546
(dp2387
I578
(dp2388
ssI547
(dp2389
I556
(dp2390
sI557
(dp2391
ssI548
(dp2392
I572
(dp2393
ssI549
(dp2394
I556
(dp2395
ssI556
(dp2396
I581
(dp2397
sI582
(dp2398
ssI557
(dp2399
I674
(dp2400
ssI558
(dp2401
I625
(dp2402
sI626
(dp2403
ssI559
(dp2404
I595
(dp2405
sI596
(dp2406
sI597
(dp2407
sI598
(dp2408
sI599
(dp2409
sI600
(dp2410
ssI560
(dp2411
I572
(dp2412
sI573
(dp2413
ssI561
(dp2414
I586
(dp2415
sI587
(dp2416
ssI564
(dp2417
I572
(dp2418
ssI566
(dp2419
I573
(dp2420
ssI567
(dp2421
I573
(dp2422
ssI568
(dp2423
I573
(dp2424
sI574
(dp2425
ssI572
(dp2426
I624
(dp2427
sI625
(dp2428
ssI573
(dp2429
I613
(dp2430
sI614
(dp2431
ssI574
(dp2432
I588
(dp2433
ssI577
(dp2434
I582
(dp2435
ssI578
(dp2436
I605
(dp2437
ssI581
(dp2438
I595
(dp2439
sI596
(dp2440
sI597
(dp2441
sI598
(dp2442
sI599
(dp2443
sI600
(dp2444
ssI582
(dp2445
I595
(dp2446
sI596
(dp2447
sI597
(dp2448
sI598
(dp2449
sI599
(dp2450
sI600
(dp2451
ssI584
(dp2452
I587
(dp2453
sI588
(dp2454
ssI586
(dp2455
I604
(dp2456
sI605
(dp2457
sI606
(dp2458
ssI587
(dp2459
I595
(dp2460
sI596
(dp2461
sI597
(dp2462
sI598
(dp2463
sI599
(dp2464
sI600
(dp2465
ssI588
(dp2466
I595
(dp2467
sI596
(dp2468
sI597
(dp2469
sI598
(dp2470
sI599
(dp2471
sI600
(dp2472
ssI595
(dp2473
I626
(dp2474
sI627
(dp2475
ssI596
(dp2476
I610
(dp2477
ssI597
(dp2478
I606
(dp2479
ssI598
(dp2480
I675
(dp2481
ssI599
(dp2482
I614
(dp2483
ssI600
(dp2484
I617
(dp2485
sI618
(dp2486
ssI604
(dp2487
I609
(dp2488
sI610
(dp2489
ssI605
(dp2490
I728
(dp2491
sI729
(dp2492
ssI606
(dp2493
I676
(dp2494
ssI609
(dp2495
I617
(dp2496
sI618
(dp2497
ssI610
(dp2498
I624
(dp2499
sI623
(dp2500
ssI613
(dp2501
I646
(dp2502
sI647
(dp2503
ssI614
(dp2504
I631
(dp2505
ssI617
(dp2506
I630
(dp2507
sI631
(dp2508
ssI618
(dp2509
I677
(dp2510
ssI623
(dp2511
I677
(dp2512
ssI624
(dp2513
I674
(dp2514
ssI625
(dp2515
I635
(dp2516
ssI626
(dp2517
I691
(dp2518
sI692
(dp2519
sI693
(dp2520
sI694
(dp2521
sI695
(dp2522
sI696
(dp2523
ssI627
(dp2524
I644
(dp2525
sI645
(dp2526
ssI630
(dp2527
I674
(dp2528
ssI631
(dp2529
I634
(dp2530
sI635
(dp2531
ssI634
(dp2532
I650
(dp2533
sI651
(dp2534
sI652
(dp2535
sI653
(dp2536
ssI635
(dp2537
I677
(dp2538
ssI636
(dp2539
I642
(dp2540
sI643
(dp2541
ssI637
(dp2542
I643
(dp2543
sI644
(dp2544
ssI639
(dp2545
I645
(dp2546
sI646
(dp2547
ssI641
(dp2548
I647
(dp2549
ssI642
(dp2550
I681
(dp2551
sI682
(dp2552
ssI643
(dp2553
I676
(dp2554
ssI644
(dp2555
I656
(dp2556
sI653
(dp2557
sI654
(dp2558
sI655
(dp2559
ssI645
(dp2560
I676
(dp2561
ssI646
(dp2562
I845
(dp2563
sI846
(dp2564
ssI647
(dp2565
I674
(dp2566
sI675
(dp2567
ssI650
(dp2568
I676
(dp2569
sI677
(dp2570
ssI651
(dp2571
I696
(dp2572
sI697
(dp2573
sI698
(dp2574
sI699
(dp2575
sI700
(dp2576
sI701
(dp2577
ssI652
(dp2578
I675
(dp2579
ssI653
(dp2580
I675
(dp2581
ssI654
(dp2582
I677
(dp2583
ssI655
(dp2584
I674
(dp2585
ssI656
(dp2586
I675
(dp2587
sI676
(dp2588
ssI674
(dp2589
I729
(dp2590
ssI675
(dp2591
I680
(dp2592
sI681
(dp2593
ssI676
(dp2594
I813
(dp2595
sI814
(dp2596
ssI677
(dp2597
I713
(dp2598
sI714
(dp2599
ssI680
(dp2600
I713
(dp2601
sI714
(dp2602
ssI681
(dp2603
I1224
(dp2604
sI1223
(dp2605
ssI682
(dp2606
I686
(dp2607
sI687
(dp2608
sI688
(dp2609
sI689
(dp2610
sI690
(dp2611
sI691
(dp2612
ssI686
(dp2613
I749
(dp2614
sI750
(dp2615
ssI687
(dp2616
I709
(dp2617
sI710
(dp2618
ssI688
(dp2619
I704
(dp2620
sI705
(dp2621
ssI689
(dp2622
I705
(dp2623
ssI690
(dp2624
I737
(dp2625
ssI691
(dp2626
I795
(dp2627
ssI692
(dp2628
I737
(dp2629
sI738
(dp2630
ssI693
(dp2631
I755
(dp2632
sI756
(dp2633
ssI694
(dp2634
I720
(dp2635
ssI695
(dp2636
I728
(dp2637
sI727
(dp2638
ssI696
(dp2639
I745
(dp2640
ssI697
(dp2641
I722
(dp2642
ssI698
(dp2643
I720
(dp2644
sI721
(dp2645
sI722
(dp2646
sI719
(dp2647
ssI699
(dp2648
I766
(dp2649
sI767
(dp2650
ssI700
(dp2651
I708
(dp2652
sI709
(dp2653
ssI701
(dp2654
I784
(dp2655
sI785
(dp2656
ssI704
(dp2657
I785
(dp2658
sI786
(dp2659
ssI705
(dp2660
I756
(dp2661
ssI708
(dp2662
I737
(dp2663
ssI709
(dp2664
I721
(dp2665
ssI710
(dp2666
I738
(dp2667
ssI713
(dp2668
I727
(dp2669
ssI714
(dp2670
I738
(dp2671
ssI719
(dp2672
I744
(dp2673
sI745
(dp2674
ssI720
(dp2675
I768
(dp2676
sI769
(dp2677
ssI721
(dp2678
I738
(dp2679
ssI722
(dp2680
I750
(dp2681
sI751
(dp2682
ssI727
(dp2683
I744
(dp2684
ssI728
(dp2685
I737
(dp2686
ssI729
(dp2687
I745
(dp2688
ssI737
(dp2689
I744
(dp2690
ssI738
(dp2691
I795
(dp2692
ssI744
(dp2693
I772
(dp2694
sI773
(dp2695
ssI745
(dp2696
I825
(dp2697
ssI748
(dp2698
I752
(dp2699
sI751
(dp2700
ssI749
(dp2701
I760
(dp2702
sI761
(dp2703
ssI750
(dp2704
I768
(dp2705
sI767
(dp2706
ssI751
(dp2707
I776
(dp2708
sI777
(dp2709
ssI752
(dp2710
I794
(dp2711
ssI755
(dp2712
I760
(dp2713
sI762
(dp2714
ssI756
(dp2715
I840
(dp2716
sI841
(dp2717
sI842
(dp2718
ssI758
(dp2719
I761
(dp2720
sI762
(dp2721
ssI760
(dp2722
I850
(dp2723
ssI761
(dp2724
I772
(dp2725
sI773
(dp2726
ssI762
(dp2727
I811
(dp2728
sI812
(dp2729
ssI766
(dp2730
I845
(dp2731
sI846
(dp2732
ssI767
(dp2733
I784
(dp2734
sI783
(dp2735
ssI768
(dp2736
I822
(dp2737
ssI769
(dp2738
I777
(dp2739
ssI772
(dp2740
I810
(dp2741
sI811
(dp2742
ssI773
(dp2743
I803
(dp2744
sI805
(dp2745
ssI776
(dp2746
I1025
(dp2747
sI1026
(dp2748
ssI777
(dp2749
I803
(dp2750
sI804
(dp2751
ssI781
(dp2752
I786
(dp2753
sI787
(dp2754
ssI782
(dp2755
I787
(dp2756
sI788
(dp2757
ssI783
(dp2758
I794
(dp2759
sI795
(dp2760
ssI784
(dp2761
I856
(dp2762
sI857
(dp2763
sI858
(dp2764
sI855
(dp2765
ssI785
(dp2766
I856
(dp2767
sI857
(dp2768
sI858
(dp2769
sI855
(dp2770
ssI786
(dp2771
I798
(dp2772
sI799
(dp2773
ssI787
(dp2774
I812
(dp2775
sI813
(dp2776
ssI788
(dp2777
I832
(dp2778
ssI789
(dp2779
I794
(dp2780
ssI794
(dp2781
I799
(dp2782
ssI795
(dp2783
I823
(dp2784
ssI798
(dp2785
I856
(dp2786
sI857
(dp2787
sI858
(dp2788
sI855
(dp2789
ssI799
(dp2790
I966
(dp2791
sI967
(dp2792
ssI801
(dp2793
I804
(dp2794
sI805
(dp2795
ssI803
(dp2796
I939
(dp2797
ssI804
(dp2798
I1064
(dp2799
ssI805
(dp2800
I824
(dp2801
ssI810
(dp2802
I832
(dp2803
sI830
(dp2804
sI831
(dp2805
ssI811
(dp2806
I849
(dp2807
sI850
(dp2808
ssI812
(dp2809
I856
(dp2810
sI857
(dp2811
sI858
(dp2812
sI855
(dp2813
ssI813
(dp2814
I821
(dp2815
sI822
(dp2816
sI823
(dp2817
sI824
(dp2818
sI825
(dp2819
sI826
(dp2820
ssI814
(dp2821
I826
(dp2822
ssI821
(dp2823
I1067
(dp2824
ssI822
(dp2825
I1600
(dp2826
sI1598
(dp2827
sI1599
(dp2828
ssI823
(dp2829
I916
(dp2830
sI917
(dp2831
sI918
(dp2832
sI919
(dp2833
sI920
(dp2834
sI921
(dp2835
ssI824
(dp2836
I831
(dp2837
ssI825
(dp2838
I840
(dp2839
sI838
(dp2840
sI839
(dp2841
ssI826
(dp2842
I1019
(dp2843
sI1020
(dp2844
ssI830
(dp2845
I921
(dp2846
sI922
(dp2847
sI923
(dp2848
sI924
(dp2849
sI925
(dp2850
sI926
(dp2851
ssI831
(dp2852
I864
(dp2853
sI863
(dp2854
ssI832
(dp2855
I896
(dp2856
sI891
(dp2857
sI892
(dp2858
sI893
(dp2859
sI894
(dp2860
sI895
(dp2861
ssI833
(dp2862
I836
(dp2863
sI837
(dp2864
sI838
(dp2865
ssI836
(dp2866
I868
(dp2867
sI869
(dp2868
ssI837
(dp2869
I906
(dp2870
sI907
(dp2871
sI908
(dp2872
sI909
(dp2873
sI910
(dp2874
sI911
(dp2875
ssI838
(dp2876
I1153
(dp2877
ssI839
(dp2878
I867
(dp2879
sI868
(dp2880
ssI840
(dp2881
I1200
(dp2882
sI1201
(dp2883
sI1202
(dp2884
sI1203
(dp2885
ssI841
(dp2886
I1032
(dp2887
sI1030
(dp2888
sI1031
(dp2889
ssI842
(dp2890
I1025
(dp2891
sI1026
(dp2892
ssI845
(dp2893
I896
(dp2894
sI897
(dp2895
sI898
(dp2896
sI899
(dp2897
sI900
(dp2898
sI901
(dp2899
ssI846
(dp2900
I928
(dp2901
sI929
(dp2902
sI930
(dp2903
sI931
(dp2904
sI926
(dp2905
sI927
(dp2906
ssI849
(dp2907
I864
(dp2908
ssI850
(dp2909
I872
(dp2910
sI873
(dp2911
sI874
(dp2912
sI875
(dp2913
sI876
(dp2914
sI877
(dp2915
ssI855
(dp2916
I862
(dp2917
sI863
(dp2918
ssI856
(dp2919
I1000
(dp2920
sI998
(dp2921
sI999
(dp2922
ssI857
(dp2923
I877
(dp2924
sI878
(dp2925
sI879
(dp2926
sI880
(dp2927
sI881
(dp2928
sI882
(dp2929
ssI858
(dp2930
I911
(dp2931
sI912
(dp2932
sI913
(dp2933
sI914
(dp2934
sI915
(dp2935
sI916
(dp2936
ssI862
(dp2937
I937
(dp2938
sI938
(dp2939
sI939
(dp2940
sI940
(dp2941
sI941
(dp2942
ssI863
(dp2943
I987
(dp2944
ssI864
(dp2945
I1122
(dp2946
sI1123
(dp2947
ssI867
(dp2948
I938
(dp2949
ssI868
(dp2950
I901
(dp2951
sI902
(dp2952
sI903
(dp2953
sI904
(dp2954
sI905
(dp2955
sI906
(dp2956
ssI869
(dp2957
I1084
(dp2958
sI1085
(dp2959
sI1086
(dp2960
ssI872
(dp2961
I1011
(dp2962
sI1012
(dp2963
ssI873
(dp2964
I962
(dp2965
sI963
(dp2966
ssI874
(dp2967
I1233
(dp2968
sI1234
(dp2969
sI1235
(dp2970
sI1236
(dp2971
sI1237
(dp2972
sI1238
(dp2973
sI1239
(dp2974
sI1240
(dp2975
ssI875
(dp2976
I1012
(dp2977
sI1013
(dp2978
ssI876
(dp2979
I1329
(dp2980
sI1330
(dp2981
ssI877
(dp2982
I963
(dp2983
ssI878
(dp2984
I1040
(dp2985
sI1039
(dp2986
ssI879
(dp2987
I1100
(dp2988
ssI880
(dp2989
I940
(dp2990
ssI881
(dp2991
I984
(dp2992
ssI882
(dp2993
I941
(dp2994
ssI891
(dp2995
I992
(dp2996
sI993
(dp2997
sI994
(dp2998
ssI892
(dp2999
I1129
(dp3000
sI1130
(dp3001
ssI893
(dp3002
I971
(dp3003
ssI894
(dp3004
I1125
(dp3005
sI1126
(dp3006
ssI895
(dp3007
I953
(dp3008
sI954
(dp3009
ssI896
(dp3010
I986
(dp3011
ssI897
(dp3012
I1013
(dp3013
sI1014
(dp3014
ssI898
(dp3015
I1095
(dp3016
ssI899
(dp3017
I1064
(dp3018
ssI900
(dp3019
I1152
(dp3020
sI1153
(dp3021
ssI901
(dp3022
I1124
(dp3023
ssI902
(dp3024
I1139
(dp3025
sI1140
(dp3026
ssI903
(dp3027
I1032
(dp3028
sI1030
(dp3029
sI1031
(dp3030
ssI904
(dp3031
I988
(dp3032
ssI905
(dp3033
I1066
(dp3034
ssI906
(dp3035
I947
(dp3036
sI948
(dp3037
sI949
(dp3038
sI950
(dp3039
ssI907
(dp3040
I975
(dp3041
ssI908
(dp3042
I1328
(dp3043
ssI909
(dp3044
I976
(dp3045
ssI910
(dp3046
I992
(dp3047
sI993
(dp3048
sI994
(dp3049
ssI911
(dp3050
I1233
(dp3051
sI1234
(dp3052
sI1235
(dp3053
sI1236
(dp3054
sI1237
(dp3055
sI1238
(dp3056
sI1239
(dp3057
sI1240
(dp3058
ssI912
(dp3059
I1161
(dp3060
ssI913
(dp3061
I1126
(dp3062
ssI914
(dp3063
I1102
(dp3064
ssI915
(dp3065
I1211
(dp3066
ssI916
(dp3067
I1075
(dp3068
ssI917
(dp3069
I976
(dp3070
sI975
(dp3071
ssI918
(dp3072
I944
(dp3073
sI945
(dp3074
sI946
(dp3075
sI947
(dp3076
ssI919
(dp3077
I1036
(dp3078
ssI920
(dp3079
I1122
(dp3080
ssI921
(dp3081
I1095
(dp3082
ssI922
(dp3083
I1064
(dp3084
ssI923
(dp3085
I958
(dp3086
sI959
(dp3087
ssI924
(dp3088
I1094
(dp3089
sI1095
(dp3090
ssI925
(dp3091
I1010
(dp3092
sI1014
(dp3093
ssI926
(dp3094
I1443
(dp3095
ssI927
(dp3096
I954
(dp3097
sI955
(dp3098
ssI928
(dp3099
I1000
(dp3100
sI998
(dp3101
sI999
(dp3102
ssI929
(dp3103
I959
(dp3104
ssI930
(dp3105
I1000
(dp3106
sI998
(dp3107
sI999
(dp3108
ssI931
(dp3109
I1150
(dp3110
sI1151
(dp3111
ssI937
(dp3112
I1064
(dp3113
sI1065
(dp3114
ssI938
(dp3115
I1040
(dp3116
sI1041
(dp3117
ssI939
(dp3118
I1065
(dp3119
ssI940
(dp3120
I967
(dp3121
ssI941
(dp3122
I1067
(dp3123
ssI944
(dp3124
I1019
(dp3125
sI1022
(dp3126
ssI945
(dp3127
I1078
(dp3128
sI1079
(dp3129
ssI946
(dp3130
I1402
(dp3131
sI1403
(dp3132
ssI947
(dp3133
I1066
(dp3134
ssI948
(dp3135
I1035
(dp3136
sI1036
(dp3137
ssI949
(dp3138
I1336
(dp3139
sI1335
(dp3140
ssI950
(dp3141
I983
(dp3142
sI984
(dp3143
sI985
(dp3144
sI986
(dp3145
sI987
(dp3146
sI988
(dp3147
ssI953
(dp3148
I1109
(dp3149
sI1110
(dp3150
ssI954
(dp3151
I1064
(dp3152
ssI955
(dp3153
I1124
(dp3154
sI1125
(dp3155
ssI958
(dp3156
I970
(dp3157
sI971
(dp3158
ssI959
(dp3159
I1010
(dp3160
sI1011
(dp3161
ssI962
(dp3162
I1045
(dp3163
sI1046
(dp3164
ssI963
(dp3165
I992
(dp3166
sI993
(dp3167
sI994
(dp3168
ssI966
(dp3169
I1082
(dp3170
sI1083
(dp3171
sI1084
(dp3172
ssI967
(dp3173
I1313
(dp3174
sI1314
(dp3175
ssI970
(dp3176
I985
(dp3177
ssI971
(dp3178
I1152
(dp3179
sI1151
(dp3180
ssI975
(dp3181
I1129
(dp3182
sI1130
(dp3183
ssI976
(dp3184
I1004
(dp3185
ssI983
(dp3186
I1003
(dp3187
sI1004
(dp3188
ssI984
(dp3189
I1065
(dp3190
ssI985
(dp3191
I1126
(dp3192
ssI986
(dp3193
I1211
(dp3194
sI1212
(dp3195
ssI987
(dp3196
I1736
(dp3197
sI1737
(dp3198
sI1738
(dp3199
ssI988
(dp3200
I1176
(dp3201
sI1175
(dp3202
ssI992
(dp3203
I1688
(dp3204
ssI993
(dp3205
I1214
(dp3206
sI1215
(dp3207
ssI994
(dp3208
I1074
(dp3209
sI1075
(dp3210
ssI998
(dp3211
I1181
(dp3212
sI1182
(dp3213
ssI999
(dp3214
I1066
(dp3215
sI1067
(dp3216
ssI1000
(dp3217
I1110
(dp3218
ssI1003
(dp3219
I1123
(dp3220
ssI1004
(dp3221
I1065
(dp3222
sI1066
(dp3223
ssI1010
(dp3224
I1123
(dp3225
sI1124
(dp3226
ssI1011
(dp3227
I1066
(dp3228
ssI1012
(dp3229
I1065
(dp3230
ssI1013
(dp3231
I1432
(dp3232
sI1429
(dp3233
sI1430
(dp3234
sI1431
(dp3235
ssI1014
(dp3236
I1094
(dp3237
ssI1016
(dp3238
I1020
(dp3239
sI1021
(dp3240
ssI1017
(dp3241
I1021
(dp3242
sI1022
(dp3243
ssI1019
(dp3244
I1070
(dp3245
sI1071
(dp3246
ssI1020
(dp3247
I1101
(dp3248
sI1102
(dp3249
ssI1021
(dp3250
I1264
(dp3251
sI1265
(dp3252
sI1263
(dp3253
ssI1022
(dp3254
I1233
(dp3255
sI1234
(dp3256
sI1235
(dp3257
sI1236
(dp3258
sI1237
(dp3259
sI1238
(dp3260
sI1239
(dp3261
sI1240
(dp3262
ssI1025
(dp3263
I1070
(dp3264
sI1071
(dp3265
ssI1026
(dp3266
I1185
(dp3267
sI1186
(dp3268
ssI1027
(dp3269
I1032
(dp3270
sI1030
(dp3271
sI1031
(dp3272
ssI1030
(dp3273
I1044
(dp3274
sI1045
(dp3275
ssI1031
(dp3276
I1144
(dp3277
sI1145
(dp3278
ssI1032
(dp3279
I1067
(dp3280
ssI1035
(dp3281
I1356
(dp3282
sI1357
(dp3283
sI1358
(dp3284
sI1359
(dp3285
ssI1036
(dp3286
I1330
(dp3287
ssI1039
(dp3288
I1137
(dp3289
sI1138
(dp3290
ssI1040
(dp3291
I1304
(dp3292
sI1305
(dp3293
ssI1041
(dp3294
I1078
(dp3295
sI1079
(dp3296
ssI1044
(dp3297
I1094
(dp3298
ssI1045
(dp3299
I1067
(dp3300
ssI1046
(dp3301
I1095
(dp3302
ssI1064
(dp3303
I1137
(dp3304
ssI1065
(dp3305
I1233
(dp3306
sI1234
(dp3307
sI1235
(dp3308
sI1236
(dp3309
sI1237
(dp3310
sI1238
(dp3311
sI1239
(dp3312
sI1240
(dp3313
ssI1066
(dp3314
I1141
(dp3315
ssI1067
(dp3316
I2275
(dp3317
ssI1070
(dp3318
I1412
(dp3319
sI1413
(dp3320
ssI1071
(dp3321
I1276
(dp3322
sI1277
(dp3323
ssI1074
(dp3324
I1177
(dp3325
sI1178
(dp3326
ssI1075
(dp3327
I1249
(dp3328
sI1250
(dp3329
sI1251
(dp3330
sI1252
(dp3331
sI1253
(dp3332
sI1254
(dp3333
ssI1078
(dp3334
I1106
(dp3335
ssI1079
(dp3336
I1144
(dp3337
sI1145
(dp3338
ssI1082
(dp3339
I1163
(dp3340
ssI1083
(dp3341
I1140
(dp3342
sI1141
(dp3343
ssI1084
(dp3344
I1176
(dp3345
sI1177
(dp3346
ssI1085
(dp3347
I1562
(dp3348
ssI1086
(dp3349
I1394
(dp3350
sI1395
(dp3351
sI1396
(dp3352
ssI1087
(dp3353
I1094
(dp3354
ssI1094
(dp3355
I1100
(dp3356
sI1101
(dp3357
ssI1095
(dp3358
I1298
(dp3359
ssI1100
(dp3360
I1169
(dp3361
sI1170
(dp3362
sI1171
(dp3363
ssI1101
(dp3364
I1105
(dp3365
sI1106
(dp3366
ssI1102
(dp3367
I1164
(dp3368
ssI1105
(dp3369
I1634
(dp3370
sI1635
(dp3371
ssI1106
(dp3372
I1122
(dp3373
ssI1109
(dp3374
I1125
(dp3375
ssI1110
(dp3376
I1281
(dp3377
sI1283
(dp3378
ssI1122
(dp3379
I1571
(dp3380
sI1572
(dp3381
ssI1123
(dp3382
I1404
(dp3383
sI1405
(dp3384
ssI1124
(dp3385
I1224
(dp3386
ssI1125
(dp3387
I1368
(dp3388
sI1369
(dp3389
sI1370
(dp3390
sI1371
(dp3391
sI1367
(dp3392
ssI1126
(dp3393
I1181
(dp3394
sI1182
(dp3395
ssI1129
(dp3396
I1160
(dp3397
sI1161
(dp3398
sI1162
(dp3399
sI1163
(dp3400
sI1164
(dp3401
sI1165
(dp3402
ssI1130
(dp3403
I1264
(dp3404
sI1265
(dp3405
sI1263
(dp3406
ssI1133
(dp3407
I1138
(dp3408
sI1139
(dp3409
ssI1137
(dp3410
I1170
(dp3411
ssI1138
(dp3412
I1331
(dp3413
ssI1139
(dp3414
I1330
(dp3415
sI1331
(dp3416
ssI1140
(dp3417
I1200
(dp3418
sI1201
(dp3419
sI1202
(dp3420
sI1203
(dp3421
ssI1141
(dp3422
I1480
(dp3423
sI1481
(dp3424
sI1479
(dp3425
ssI1144
(dp3426
I1248
(dp3427
sI1249
(dp3428
sI1244
(dp3429
sI1245
(dp3430
sI1246
(dp3431
sI1247
(dp3432
ssI1145
(dp3433
I1421
(dp3434
sI1422
(dp3435
ssI1150
(dp3436
I1213
(dp3437
sI1214
(dp3438
ssI1151
(dp3439
I1162
(dp3440
ssI1152
(dp3441
I1308
(dp3442
sI1309
(dp3443
ssI1153
(dp3444
I1277
(dp3445
ssI1159
(dp3446
I1165
(dp3447
ssI1160
(dp3448
I1281
(dp3449
sI1282
(dp3450
ssI1161
(dp3451
I1171
(dp3452
ssI1162
(dp3453
I1200
(dp3454
sI1201
(dp3455
sI1202
(dp3456
sI1203
(dp3457
ssI1163
(dp3458
I1519
(dp3459
ssI1164
(dp3460
I1221
(dp3461
sI1222
(dp3462
ssI1165
(dp3463
I1200
(dp3464
sI1201
(dp3465
sI1202
(dp3466
sI1203
(dp3467
ssI1169
(dp3468
I1282
(dp3469
sI1283
(dp3470
ssI1170
(dp3471
I1292
(dp3472
sI1293
(dp3473
ssI1171
(dp3474
I1584
(dp3475
sI1585
(dp3476
sI1586
(dp3477
sI1583
(dp3478
ssI1175
(dp3479
I1331
(dp3480
ssI1176
(dp3481
I1192
(dp3482
sI1189
(dp3483
sI1190
(dp3484
sI1191
(dp3485
ssI1177
(dp3486
I1305
(dp3487
ssI1178
(dp3488
I1216
(dp3489
ssI1181
(dp3490
I1185
(dp3491
sI1186
(dp3492
ssI1182
(dp3493
I1545
(dp3494
sI1546
(dp3495
sI1547
(dp3496
ssI1185
(dp3497
I1233
(dp3498
sI1234
(dp3499
sI1235
(dp3500
sI1236
(dp3501
sI1237
(dp3502
sI1238
(dp3503
sI1239
(dp3504
sI1240
(dp3505
ssI1186
(dp3506
I1192
(dp3507
sI1193
(dp3508
sI1194
(dp3509
sI1195
(dp3510
ssI1189
(dp3511
I1222
(dp3512
sI1223
(dp3513
ssI1190
(dp3514
I1271
(dp3515
ssI1191
(dp3516
I1396
(dp3517
sI1397
(dp3518
sI1398
(dp3519
ssI1192
(dp3520
I1329
(dp3521
ssI1193
(dp3522
I1518
(dp3523
sI1519
(dp3524
ssI1194
(dp3525
I1233
(dp3526
sI1234
(dp3527
sI1235
(dp3528
sI1236
(dp3529
sI1237
(dp3530
sI1238
(dp3531
sI1239
(dp3532
sI1240
(dp3533
ssI1195
(dp3534
I1212
(dp3535
sI1213
(dp3536
ssI1200
(dp3537
I1216
(dp3538
sI1215
(dp3539
ssI1201
(dp3540
I1998
(dp3541
ssI1202
(dp3542
I1650
(dp3543
sI1651
(dp3544
ssI1203
(dp3545
I1410
(dp3546
sI1413
(dp3547
ssI1211
(dp3548
I1254
(dp3549
sI1255
(dp3550
sI1256
(dp3551
sI1257
(dp3552
sI1258
(dp3553
sI1259
(dp3554
ssI1212
(dp3555
I1692
(dp3556
sI1693
(dp3557
sI1694
(dp3558
ssI1213
(dp3559
I1443
(dp3560
ssI1214
(dp3561
I1233
(dp3562
sI1234
(dp3563
sI1235
(dp3564
sI1236
(dp3565
sI1237
(dp3566
sI1238
(dp3567
sI1239
(dp3568
sI1240
(dp3569
ssI1215
(dp3570
I1264
(dp3571
sI1265
(dp3572
sI1263
(dp3573
ssI1216
(dp3574
I1335
(dp3575
ssI1221
(dp3576
I1876
(dp3577
sI1877
(dp3578
ssI1222
(dp3579
I1371
(dp3580
sI1372
(dp3581
sI1373
(dp3582
sI1374
(dp3583
sI1375
(dp3584
ssI1223
(dp3585
I1531
(dp3586
ssI1224
(dp3587
I1233
(dp3588
sI1234
(dp3589
sI1235
(dp3590
sI1236
(dp3591
sI1237
(dp3592
sI1238
(dp3593
sI1239
(dp3594
sI1240
(dp3595
ssI1233
(dp3596
I1276
(dp3597
ssI1234
(dp3598
I1344
(dp3599
sI1345
(dp3600
sI1342
(dp3601
sI1343
(dp3602
ssI1235
(dp3603
I1442
(dp3604
ssI1236
(dp3605
I1297
(dp3606
ssI1237
(dp3607
I1494
(dp3608
ssI1238
(dp3609
I1328
(dp3610
sI1329
(dp3611
ssI1239
(dp3612
I1529
(dp3613
sI1530
(dp3614
ssI1240
(dp3615
I1304
(dp3616
ssI1244
(dp3617
I1360
(dp3618
sI1361
(dp3619
sI1362
(dp3620
sI1359
(dp3621
ssI1245
(dp3622
I1519
(dp3623
ssI1246
(dp3624
I1288
(dp3625
sI1289
(dp3626
sI1287
(dp3627
ssI1247
(dp3628
I1352
(dp3629
sI1353
(dp3630
sI1350
(dp3631
sI1351
(dp3632
ssI1248
(dp3633
I1328
(dp3634
ssI1249
(dp3635
sI1250
(dp3636
I1624
(dp3637
sI1621
(dp3638
sI1622
(dp3639
sI1623
(dp3640
ssI1251
(dp3641
I1317
(dp3642
sI1318
(dp3643
ssI1252
(dp3644
I1518
(dp3645
ssI1253
(dp3646
I1288
(dp3647
sI1289
(dp3648
sI1287
(dp3649
ssI1254
(dp3650
I1763
(dp3651
sI1764
(dp3652
ssI1255
(dp3653
I1553
(dp3654
ssI1256
(dp3655
I1812
(dp3656
ssI1257
(dp3657
I1305
(dp3658
ssI1258
(dp3659
I1339
(dp3660
sI1340
(dp3661
sI1341
(dp3662
sI1342
(dp3663
ssI1259
(dp3664
I1561
(dp3665
sI1562
(dp3666
ssI1263
(dp3667
I1272
(dp3668
ssI1264
(dp3669
I1292
(dp3670
sI1293
(dp3671
ssI1265
(dp3672
I1390
(dp3673
sI1391
(dp3674
ssI1267
(dp3675
I1271
(dp3676
ssI1268
(dp3677
I1272
(dp3678
sI1271
(dp3679
ssI1270
(dp3680
I1272
(dp3681
ssI1271
(dp3682
I1553
(dp3683
sI1554
(dp3684
ssI1272
(dp3685
I2048
(dp3686
sI2047
(dp3687
ssI1276
(dp3688
I1571
(dp3689
sI1572
(dp3690
ssI1277
(dp3691
I1627
(dp3692
sI1628
(dp3693
sI1629
(dp3694
sI1630
(dp3695
ssI1281
(dp3696
I1877
(dp3697
ssI1282
(dp3698
I1862
(dp3699
sI1863
(dp3700
ssI1283
(dp3701
I1391
(dp3702
ssI1285
(dp3703
I1288
(dp3704
sI1289
(dp3705
sI1287
(dp3706
ssI1287
(dp3707
I1519
(dp3708
ssI1288
(dp3709
I1353
(dp3710
sI1354
(dp3711
sI1355
(dp3712
sI1356
(dp3713
ssI1289
(dp3714
I1851
(dp3715
sI1852
(dp3716
sI1853
(dp3717
sI1854
(dp3718
ssI1292
(dp3719
I1318
(dp3720
ssI1293
(dp3721
I1379
(dp3722
sI1380
(dp3723
sI1381
(dp3724
sI1382
(dp3725
sI1383
(dp3726
ssI1295
(dp3727
I1297
(dp3728
sI1298
(dp3729
ssI1297
(dp3730
I1557
(dp3731
sI1558
(dp3732
ssI1298
(dp3733
I1309
(dp3734
ssI1299
(dp3735
I1304
(dp3736
ssI1304
(dp3737
I1312
(dp3738
sI1313
(dp3739
ssI1305
(dp3740
I1813
(dp3741
sI1814
(dp3742
ssI1308
(dp3743
I1452
(dp3744
sI1453
(dp3745
ssI1309
(dp3746
I1771
(dp3747
sI1772
(dp3748
ssI1312
(dp3749
I1657
(dp3750
sI1658
(dp3751
ssI1313
(dp3752
I1612
(dp3753
sI1613
(dp3754
ssI1314
(dp3755
I1600
(dp3756
sI1601
(dp3757
sI1602
(dp3758
ssI1317
(dp3759
I1336
(dp3760
ssI1318
(dp3761
I1416
(dp3762
sI1417
(dp3763
ssI1328
(dp3764
I1459
(dp3765
ssI1329
(dp3766
I1659
(dp3767
ssI1330
(dp3768
I1457
(dp3769
sI1458
(dp3770
sI1459
(dp3771
ssI1331
(dp3772
I1467
(dp3773
ssI1335
(dp3774
I1529
(dp3775
ssI1336
(dp3776
I1470
(dp3777
sI1471
(dp3778
ssI1339
(dp3779
I1416
(dp3780
sI1417
(dp3781
ssI1340
(dp3782
I1920
(dp3783
sI1926
(dp3784
ssI1341
(dp3785
I2098
(dp3786
ssI1342
(dp3787
I1523
(dp3788
sI1524
(dp3789
ssI1343
(dp3790
I1508
(dp3791
ssI1344
(dp3792
I1664
(dp3793
sI1665
(dp3794
ssI1345
(dp3795
I1670
(dp3796
sI1671
(dp3797
ssI1350
(dp3798
I1386
(dp3799
sI1387
(dp3800
ssI1351
(dp3801
I1507
(dp3802
ssI1352
(dp3803
I1501
(dp3804
sI1502
(dp3805
ssI1353
(dp3806
I1484
(dp3807
sI1485
(dp3808
sI1486
(dp3809
sI1487
(dp3810
ssI1354
(dp3811
I1905
(dp3812
sI1906
(dp3813
sI1907
(dp3814
sI1908
(dp3815
ssI1355
(dp3816
I1411
(dp3817
sI1412
(dp3818
ssI1356
(dp3819
I1386
(dp3820
sI1387
(dp3821
ssI1357
(dp3822
I1442
(dp3823
ssI1358
(dp3824
I1506
(dp3825
sI1507
(dp3826
sI1508
(dp3827
ssI1359
(dp3828
I1518
(dp3829
ssI1360
(dp3830
I1403
(dp3831
sI1404
(dp3832
ssI1361
(dp3833
I1684
(dp3834
ssI1362
(dp3835
I1518
(dp3836
ssI1365
(dp3837
I1376
(dp3838
sI1377
(dp3839
sI1378
(dp3840
sI1379
(dp3841
sI1375
(dp3842
ssI1367
(dp3843
sI1368
(dp3844
I2261
(dp3845
sI2262
(dp3846
sI2263
(dp3847
ssI1369
(dp3848
I1452
(dp3849
sI1453
(dp3850
ssI1370
(dp3851
I1488
(dp3852
sI1489
(dp3853
sI1490
(dp3854
sI1487
(dp3855
ssI1371
(dp3856
I1477
(dp3857
sI1478
(dp3858
sI1479
(dp3859
ssI1372
(dp3860
I1584
(dp3861
sI1585
(dp3862
sI1586
(dp3863
sI1583
(dp3864
ssI1373
(dp3865
I1443
(dp3866
ssI1374
(dp3867
I1539
(dp3868
sI1540
(dp3869
ssI1375
(dp3870
I1424
(dp3871
sI1423
(dp3872
ssI1376
(dp3873
I1443
(dp3874
ssI1377
(dp3875
I1786
(dp3876
sI1787
(dp3877
ssI1378
(dp3878
I1650
(dp3879
ssI1379
(dp3880
I1590
(dp3881
ssI1380
(dp3882
I1410
(dp3883
sI1411
(dp3884
ssI1381
(dp3885
I1650
(dp3886
ssI1382
(dp3887
I1568
(dp3888
sI1567
(dp3889
ssI1383
(dp3890
sI1386
(dp3891
I1471
(dp3892
ssI1387
(dp3893
I1432
(dp3894
sI1429
(dp3895
sI1430
(dp3896
sI1431
(dp3897
ssI1390
(dp3898
I1540
(dp3899
sI1541
(dp3900
ssI1391
(dp3901
sI1394
(dp3902
I1684
(dp3903
sI1685
(dp3904
ssI1395
(dp3905
I1475
(dp3906
sI1476
(dp3907
sI1477
(dp3908
ssI1396
(dp3909
I1493
(dp3910
sI1494
(dp3911
ssI1397
(dp3912
I1519
(dp3913
ssI1398
(dp3914
I2320
(dp3915
sI2321
(dp3916
ssI1402
(dp3917
I1458
(dp3918
ssI1403
(dp3919
I1554
(dp3920
ssI1404
(dp3921
I1811
(dp3922
ssI1405
(dp3923
I1448
(dp3924
sI1447
(dp3925
ssI1410
(dp3926
I1523
(dp3927
ssI1411
(dp3928
I1720
(dp3929
sI1719
(dp3930
ssI1412
(dp3931
I1812
(dp3932
ssI1413
(dp3933
I1729
(dp3934
sI1730
(dp3935
ssI1416
(dp3936
I1432
(dp3937
sI1429
(dp3938
sI1430
(dp3939
sI1431
(dp3940
ssI1417
(dp3941
I1442
(dp3942
ssI1419
(dp3943
I1422
(dp3944
sI1423
(dp3945
ssI1421
(dp3946
I1602
(dp3947
sI1603
(dp3948
sI1604
(dp3949
ssI1422
(dp3950
I1442
(dp3951
ssI1423
(dp3952
I1466
(dp3953
ssI1424
(dp3954
I1465
(dp3955
ssI1427
(dp3956
I1432
(dp3957
sI1429
(dp3958
sI1430
(dp3959
sI1431
(dp3960
ssI1429
(dp3961
I1888
(dp3962
sI1889
(dp3963
sI1890
(dp3964
sI1891
(dp3965
sI1885
(dp3966
sI1886
(dp3967
sI1887
(dp3968
ssI1430
(dp3969
I1442
(dp3970
sI1443
(dp3971
ssI1431
(dp3972
I1449
(dp3973
ssI1432
(dp3974
sI1442
(dp3975
I2040
(dp3976
sI2039
(dp3977
ssI1443
(dp3978
I1704
(dp3979
sI1702
(dp3980
ssI1445
(dp3981
I1448
(dp3982
sI1449
(dp3983
ssI1447
(dp3984
I1501
(dp3985
sI1502
(dp3986
ssI1448
(dp3987
I1688
(dp3988
ssI1449
(dp3989
I1593
(dp3990
sI1594
(dp3991
ssI1452
(dp3992
I2355
(dp3993
sI2356
(dp3994
sI2357
(dp3995
sI2358
(dp3996
ssI1453
(dp3997
I1497
(dp3998
sI1498
(dp3999
ssI1457
(dp4000
I1792
(dp4001
sI1793
(dp4002
ssI1458
(dp4003
I1589
(dp4004
sI1590
(dp4005
ssI1459
(dp4006
I1568
(dp4007
ssI1460
(dp4008
I1464
(dp4009
sI1465
(dp4010
sI1466
(dp4011
sI1467
(dp4012
ssI1464
(dp4013
I1698
(dp4014
ssI1465
(dp4015
I1707
(dp4016
sI1708
(dp4017
ssI1466
(dp4018
I1846
(dp4019
ssI1467
(dp4020
I1578
(dp4021
ssI1470
(dp4022
I1707
(dp4023
sI1708
(dp4024
ssI1471
(dp4025
I2401
(dp4026
sI2402
(dp4027
sI2403
(dp4028
sI2404
(dp4029
sI2405
(dp4030
ssI1475
(dp4031
I1813
(dp4032
ssI1476
(dp4033
I2432
(dp4034
sI2430
(dp4035
sI2431
(dp4036
ssI1477
(dp4037
I1688
(dp4038
sI1687
(dp4039
ssI1478
(dp4040
I1812
(dp4041
ssI1479
(dp4042
I1611
(dp4043
sI1612
(dp4044
ssI1480
(dp4045
I1750
(dp4046
sI1751
(dp4047
ssI1481
(dp4048
I1497
(dp4049
sI1498
(dp4050
ssI1484
(dp4051
I1644
(dp4052
ssI1485
(dp4053
I1577
(dp4054
ssI1486
(dp4055
I1643
(dp4056
sI1644
(dp4057
ssI1487
(dp4058
I1686
(dp4059
sI1687
(dp4060
ssI1488
(dp4061
I1538
(dp4062
ssI1489
(dp4063
I1929
(dp4064
sI1930
(dp4065
ssI1490
(dp4066
I1576
(dp4067
sI1577
(dp4068
sI1578
(dp4069
ssI1493
(dp4070
I1635
(dp4071
sI1636
(dp4072
ssI1494
(dp4073
I1697
(dp4074
sI1698
(dp4075
ssI1497
(dp4076
I1542
(dp4077
ssI1498
(dp4078
I1538
(dp4079
sI1539
(dp4080
ssI1501
(dp4081
I1557
(dp4082
sI1558
(dp4083
ssI1502
(dp4084
I1518
(dp4085
ssI1506
(dp4086
I1672
(dp4087
sI1671
(dp4088
ssI1507
(dp4089
I1814
(dp4090
ssI1508
(dp4091
I1541
(dp4092
sI1542
(dp4093
ssI1518
(dp4094
I1780
(dp4095
ssI1519
(dp4096
I2121
(dp4097
sI2122
(dp4098
ssI1522
(dp4099
I1524
(dp4100
ssI1523
(dp4101
I1547
(dp4102
sI1548
(dp4103
sI1549
(dp4104
ssI1524
(dp4105
I1768
(dp4106
ssI1527
(dp4107
I1530
(dp4108
sI1531
(dp4109
ssI1529
(dp4110
I1566
(dp4111
sI1567
(dp4112
ssI1530
(dp4113
I1640
(dp4114
sI1639
(dp4115
ssI1531
(dp4116
I1763
(dp4117
sI1764
(dp4118
ssI1538
(dp4119
I1584
(dp4120
sI1585
(dp4121
sI1586
(dp4122
sI1583
(dp4123
ssI1539
(dp4124
sI1540
(dp4125
I1693
(dp4126
ssI1541
(dp4127
I1745
(dp4128
sI1746
(dp4129
ssI1542
(dp4130
I1685
(dp4131
ssI1545
(dp4132
sI1546
(dp4133
I1963
(dp4134
sI1964
(dp4135
ssI1547
(dp4136
I1614
(dp4137
sI1615
(dp4138
ssI1548
(dp4139
I1640
(dp4140
sI1639
(dp4141
ssI1549
(dp4142
sI1553
(dp4143
I1593
(dp4144
sI1594
(dp4145
ssI1554
(dp4146
I1616
(dp4147
sI1615
(dp4148
ssI1557
(dp4149
I1941
(dp4150
sI1942
(dp4151
ssI1558
(dp4152
I1666
(dp4153
sI1667
(dp4154
ssI1561
(dp4155
I1888
(dp4156
sI1889
(dp4157
sI1890
(dp4158
sI1891
(dp4159
sI1885
(dp4160
sI1886
(dp4161
sI1887
(dp4162
ssI1562
(dp4163
I1825
(dp4164
sI1826
(dp4165
sI1827
(dp4166
sI1828
(dp4167
ssI1566
(dp4168
I1584
(dp4169
sI1585
(dp4170
sI1586
(dp4171
sI1583
(dp4172
ssI1567
(dp4173
I1785
(dp4174
sI1786
(dp4175
ssI1568
(dp4176
I1840
(dp4177
ssI1571
(dp4178
I1636
(dp4179
ssI1572
(dp4180
I2448
(dp4181
sI2447
(dp4182
ssI1576
(dp4183
I1851
(dp4184
sI1852
(dp4185
sI1853
(dp4186
sI1854
(dp4187
ssI1577
(dp4188
I1851
(dp4189
sI1852
(dp4190
sI1853
(dp4191
sI1854
(dp4192
ssI1578
(dp4193
I1723
(dp4194
sI1724
(dp4195
ssI1583
(dp4196
I1758
(dp4197
sI1759
(dp4198
ssI1584
(dp4199
I2438
(dp4200
ssI1585
(dp4201
I2128
(dp4202
sI2126
(dp4203
sI2127
(dp4204
ssI1586
(dp4205
I2088
(dp4206
sI2089
(dp4207
sI2090
(dp4208
sI2091
(dp4209
sI2092
(dp4210
sI2093
(dp4211
sI2094
(dp4212
ssI1589
(dp4213
I2019
(dp4214
sI2020
(dp4215
sI2021
(dp4216
sI2022
(dp4217
sI2023
(dp4218
sI2024
(dp4219
ssI1590
(dp4220
I1841
(dp4221
sI1842
(dp4222
ssI1593
(dp4223
I1656
(dp4224
sI1657
(dp4225
ssI1594
(dp4226
I1613
(dp4227
sI1614
(dp4228
ssI1598
(dp4229
I1715
(dp4230
sI1716
(dp4231
ssI1599
(dp4232
I1923
(dp4233
sI1924
(dp4234
ssI1600
(dp4235
I1651
(dp4236
ssI1601
(dp4237
I1818
(dp4238
sI1819
(dp4239
ssI1602
(dp4240
I1616
(dp4241
sI1617
(dp4242
ssI1603
(dp4243
I1813
(dp4244
ssI1604
(dp4245
I1624
(dp4246
sI1625
(dp4247
sI1626
(dp4248
sI1627
(dp4249
ssI1611
(dp4250
I1908
(dp4251
ssI1612
(dp4252
sI1613
(dp4253
sI1614
(dp4254
I1702
(dp4255
sI1703
(dp4256
ssI1615
(dp4257
I1768
(dp4258
sI1767
(dp4259
ssI1616
(dp4260
I1888
(dp4261
sI1889
(dp4262
sI1890
(dp4263
sI1891
(dp4264
sI1885
(dp4265
sI1886
(dp4266
sI1887
(dp4267
ssI1617
(dp4268
sI1621
(dp4269
I1771
(dp4270
sI1772
(dp4271
ssI1622
(dp4272
sI1623
(dp4273
I1651
(dp4274
ssI1624
(dp4275
I1684
(dp4276
ssI1625
(dp4277
I1896
(dp4278
ssI1626
(dp4279
I1833
(dp4280
sI1834
(dp4281
sI1835
(dp4282
ssI1627
(dp4283
I1912
(dp4284
sI1911
(dp4285
ssI1628
(dp4286
I1665
(dp4287
sI1666
(dp4288
ssI1629
(dp4289
I1793
(dp4290
ssI1630
(dp4291
sI1634
(dp4292
I1814
(dp4293
ssI1635
(dp4294
I1687
(dp4295
ssI1636
(dp4296
I1749
(dp4297
sI1750
(dp4298
ssI1639
(dp4299
I1845
(dp4300
sI1846
(dp4301
ssI1640
(dp4302
I2063
(dp4303
sI2064
(dp4304
sI2065
(dp4305
sI2066
(dp4306
sI2067
(dp4307
sI2068
(dp4308
sI2069
(dp4309
ssI1643
(dp4310
I1694
(dp4311
ssI1644
(dp4312
I1754
(dp4313
sI1755
(dp4314
ssI1650
(dp4315
I1720
(dp4316
ssI1651
(dp4317
I1723
(dp4318
sI1724
(dp4319
ssI1654
(dp4320
I1658
(dp4321
sI1659
(dp4322
ssI1656
(dp4323
I1858
(dp4324
sI1859
(dp4325
ssI1657
(dp4326
I1736
(dp4327
sI1734
(dp4328
sI1735
(dp4329
ssI1658
(dp4330
I1664
(dp4331
sI1667
(dp4332
ssI1659
(dp4333
I1963
(dp4334
sI1964
(dp4335
ssI1664
(dp4336
I1685
(dp4337
sI1686
(dp4338
ssI1665
(dp4339
sI1666
(dp4340
I1813
(dp4341
ssI1667
(dp4342
I1811
(dp4343
ssI1670
(dp4344
sI1671
(dp4345
I1851
(dp4346
sI1852
(dp4347
sI1853
(dp4348
sI1854
(dp4349
ssI1672
(dp4350
I1832
(dp4351
sI1833
(dp4352
sI1831
(dp4353
ssI1678
(dp4354
I1686
(dp4355
ssI1684
(dp4356
I2432
(dp4357
sI2430
(dp4358
sI2431
(dp4359
ssI1685
(dp4360
I2196
(dp4361
sI2197
(dp4362
ssI1686
(dp4363
sI1687
(dp4364
sI1688
(dp4365
I1716
(dp4366
sI1717
(dp4367
ssI1692
(dp4368
I1754
(dp4369
sI1755
(dp4370
ssI1693
(dp4371
I1731
(dp4372
ssI1694
(dp4373
I1704
(dp4374
sI1703
(dp4375
ssI1697
(dp4376
I2192
(dp4377
sI2191
(dp4378
ssI1698
(dp4379
I1857
(dp4380
sI1858
(dp4381
ssI1702
(dp4382
I1941
(dp4383
sI1942
(dp4384
ssI1703
(dp4385
I1811
(dp4386
ssI1704
(dp4387
I1730
(dp4388
sI1731
(dp4389
ssI1707
(dp4390
I1746
(dp4391
ssI1708
(dp4392
sI1711
(dp4393
I1717
(dp4394
sI1718
(dp4395
ssI1712
(dp4396
I1718
(dp4397
sI1719
(dp4398
ssI1715
(dp4399
I2154
(dp4400
ssI1716
(dp4401
I1840
(dp4402
sI1841
(dp4403
ssI1717
(dp4404
I1779
(dp4405
sI1780
(dp4406
ssI1718
(dp4407
I1937
(dp4408
ssI1719
(dp4409
I1729
(dp4410
ssI1720
(dp4411
I1760
(dp4412
sI1759
(dp4413
ssI1723
(dp4414
I2043
(dp4415
sI2044
(dp4416
ssI1724
(dp4417
sI1729
(dp4418
I1744
(dp4419
sI1743
(dp4420
ssI1730
(dp4421
I1784
(dp4422
sI1785
(dp4423
ssI1731
(dp4424
sI1734
(dp4425
sI1735
(dp4426
I1895
(dp4427
ssI1736
(dp4428
sI1737
(dp4429
I1985
(dp4430
sI1986
(dp4431
sI1987
(dp4432
ssI1738
(dp4433
I1997
(dp4434
ssI1740
(dp4435
I1744
(dp4436
sI1745
(dp4437
ssI1743
(dp4438
I1818
(dp4439
ssI1744
(dp4440
sI1745
(dp4441
I1876
(dp4442
ssI1746
(dp4443
I1870
(dp4444
sI1871
(dp4445
ssI1749
(dp4446
I2297
(dp4447
sI2294
(dp4448
ssI1750
(dp4449
I1900
(dp4450
ssI1751
(dp4451
I2182
(dp4452
sI2183
(dp4453
ssI1754
(dp4454
I2104
(dp4455
sI2103
(dp4456
ssI1755
(dp4457
sI1758
(dp4458
I1778
(dp4459
sI1779
(dp4460
ssI1759
(dp4461
I2121
(dp4462
sI2122
(dp4463
ssI1760
(dp4464
I1812
(dp4465
sI1813
(dp4466
ssI1763
(dp4467
I2057
(dp4468
sI2058
(dp4469
sI2059
(dp4470
sI2060
(dp4471
sI2061
(dp4472
sI2062
(dp4473
sI2063
(dp4474
ssI1764
(dp4475
I1899
(dp4476
sI1900
(dp4477
ssI1767
(dp4478
I1866
(dp4479
sI1867
(dp4480
ssI1768
(dp4481
I1811
(dp4482
ssI1771
(dp4483
I1811
(dp4484
sI1812
(dp4485
ssI1772
(dp4486
I2200
(dp4487
sI2201
(dp4488
sI2202
(dp4489
sI2203
(dp4490
sI2204
(dp4491
sI2205
(dp4492
ssI1773
(dp4493
I1777
(dp4494
sI1778
(dp4495
ssI1777
(dp4496
I1814
(dp4497
ssI1778
(dp4498
I2247
(dp4499
ssI1779
(dp4500
I1824
(dp4501
sI1825
(dp4502
sI1822
(dp4503
sI1823
(dp4504
ssI1780
(dp4505
I1922
(dp4506
sI1923
(dp4507
ssI1784
(dp4508
I1888
(dp4509
sI1889
(dp4510
sI1890
(dp4511
sI1891
(dp4512
sI1885
(dp4513
sI1886
(dp4514
sI1887
(dp4515
ssI1785
(dp4516
I1996
(dp4517
sI1997
(dp4518
sI1998
(dp4519
sI1999
(dp4520
sI2000
(dp4521
sI2001
(dp4522
sI2002
(dp4523
sI2003
(dp4524
ssI1786
(dp4525
I1978
(dp4526
sI1979
(dp4527
sI1980
(dp4528
sI1981
(dp4529
ssI1787
(dp4530
I2308
(dp4531
sI2309
(dp4532
ssI1788
(dp4533
I1792
(dp4534
sI1791
(dp4535
ssI1791
(dp4536
I1872
(dp4537
sI1871
(dp4538
ssI1792
(dp4539
sI1793
(dp4540
I1814
(dp4541
ssI1811
(dp4542
sI1812
(dp4543
I1819
(dp4544
ssI1813
(dp4545
sI1814
(dp4546
I1999
(dp4547
ssI1818
(dp4548
sI1819
(dp4549
sI1822
(dp4550
I2469
(dp4551
sI2470
(dp4552
sI2471
(dp4553
ssI1823
(dp4554
I2472
(dp4555
sI2473
(dp4556
sI2471
(dp4557
ssI1824
(dp4558
sI1825
(dp4559
I2038
(dp4560
sI2039
(dp4561
ssI1826
(dp4562
I1862
(dp4563
sI1863
(dp4564
ssI1827
(dp4565
I2079
(dp4566
ssI1828
(dp4567
I1866
(dp4568
sI1867
(dp4569
ssI1831
(dp4570
sI1832
(dp4571
I2313
(dp4572
ssI1833
(dp4573
sI1834
(dp4574
I2000
(dp4575
ssI1835
(dp4576
I1896
(dp4577
sI1895
(dp4578
ssI1839
(dp4579
I1842
(dp4580
ssI1840
(dp4581
I1888
(dp4582
sI1889
(dp4583
sI1890
(dp4584
sI1891
(dp4585
sI1885
(dp4586
sI1886
(dp4587
sI1887
(dp4588
ssI1841
(dp4589
I1978
(dp4590
sI1979
(dp4591
sI1980
(dp4592
sI1981
(dp4593
ssI1842
(dp4594
I1938
(dp4595
ssI1845
(dp4596
sI1846
(dp4597
I2128
(dp4598
sI2126
(dp4599
sI2127
(dp4600
ssI1851
(dp4601
I1947
(dp4602
sI1948
(dp4603
sI1949
(dp4604
ssI1852
(dp4605
I1888
(dp4606
sI1889
(dp4607
sI1890
(dp4608
sI1891
(dp4609
sI1885
(dp4610
sI1886
(dp4611
sI1887
(dp4612
ssI1853
(dp4613
sI1854
(dp4614
sI1857
(dp4615
sI1858
(dp4616
I2108
(dp4617
sI2109
(dp4618
ssI1859
(dp4619
sI1862
(dp4620
I1912
(dp4621
ssI1863
(dp4622
I1920
(dp4623
sI1921
(dp4624
ssI1866
(dp4625
sI1867
(dp4626
I2116
(dp4627
sI2117
(dp4628
ssI1870
(dp4629
I2094
(dp4630
ssI1871
(dp4631
sI1872
(dp4632
I1970
(dp4633
sI1971
(dp4634
sI1972
(dp4635
sI1973
(dp4636
ssI1876
(dp4637
I2131
(dp4638
sI2132
(dp4639
ssI1877
(dp4640
I1952
(dp4641
sI1953
(dp4642
sI1954
(dp4643
sI1955
(dp4644
sI1956
(dp4645
ssI1879
(dp4646
I1888
(dp4647
sI1889
(dp4648
sI1890
(dp4649
sI1891
(dp4650
sI1885
(dp4651
sI1886
(dp4652
sI1887
(dp4653
ssI1885
(dp4654
I2169
(dp4655
sI2170
(dp4656
ssI1886
(dp4657
I2009
(dp4658
sI2010
(dp4659
sI2011
(dp4660
sI2012
(dp4661
sI2013
(dp4662
sI2014
(dp4663
ssI1887
(dp4664
I2144
(dp4665
sI2146
(dp4666
ssI1888
(dp4667
sI1889
(dp4668
I2355
(dp4669
sI2356
(dp4670
sI2357
(dp4671
sI2358
(dp4672
ssI1890
(dp4673
I2089
(dp4674
ssI1891
(dp4675
sI1895
(dp4676
sI1896
(dp4677
I1978
(dp4678
sI1979
(dp4679
sI1980
(dp4680
sI1981
(dp4681
ssI1899
(dp4682
I2324
(dp4683
sI2325
(dp4684
ssI1900
(dp4685
I2029
(dp4686
sI2030
(dp4687
sI2031
(dp4688
sI2032
(dp4689
sI2033
(dp4690
sI2034
(dp4691
ssI1902
(dp4692
I1906
(dp4693
ssI1903
(dp4694
I1907
(dp4695
ssI1905
(dp4696
I2186
(dp4697
sI2187
(dp4698
ssI1906
(dp4699
sI1907
(dp4700
I2316
(dp4701
sI2317
(dp4702
ssI1908
(dp4703
I1925
(dp4704
sI1926
(dp4705
ssI1911
(dp4706
I2069
(dp4707
sI2070
(dp4708
sI2071
(dp4709
sI2072
(dp4710
sI2073
(dp4711
sI2074
(dp4712
sI2075
(dp4713
ssI1912
(dp4714
I1924
(dp4715
sI1925
(dp4716
ssI1914
(dp4717
I1921
(dp4718
sI1922
(dp4719
ssI1920
(dp4720
sI1921
(dp4721
sI1922
(dp4722
I1960
(dp4723
sI1956
(dp4724
sI1957
(dp4725
sI1958
(dp4726
sI1959
(dp4727
ssI1923
(dp4728
sI1924
(dp4729
I1929
(dp4730
sI1930
(dp4731
ssI1925
(dp4732
I2174
(dp4733
sI2175
(dp4734
ssI1926
(dp4735
I2128
(dp4736
sI2126
(dp4737
sI2127
(dp4738
ssI1929
(dp4739
I2003
(dp4740
ssI1930
(dp4741
sI1931
(dp4742
I1936
(dp4743
sI1937
(dp4744
sI1938
(dp4745
sI1935
(dp4746
ssI1932
(dp4747
I1936
(dp4748
ssI1935
(dp4749
I2002
(dp4750
ssI1936
(dp4751
I1945
(dp4752
sI1946
(dp4753
sI1947
(dp4754
ssI1937
(dp4755
sI1938
(dp4756
sI1941
(dp4757
I2340
(dp4758
ssI1942
(dp4759
I2173
(dp4760
sI2174
(dp4761
ssI1945
(dp4762
I1985
(dp4763
sI1986
(dp4764
sI1987
(dp4765
ssI1946
(dp4766
sI1947
(dp4767
I2136
(dp4768
sI2135
(dp4769
ssI1948
(dp4770
I1978
(dp4771
sI1979
(dp4772
sI1980
(dp4773
sI1981
(dp4774
ssI1949
(dp4775
sI1952
(dp4776
I2016
(dp4777
sI2017
(dp4778
sI2018
(dp4779
sI2019
(dp4780
sI2014
(dp4781
sI2015
(dp4782
ssI1953
(dp4783
I2048
(dp4784
sI2049
(dp4785
ssI1954
(dp4786
I2001
(dp4787
ssI1955
(dp4788
I2421
(dp4789
ssI1956
(dp4790
I2139
(dp4791
sI2140
(dp4792
ssI1957
(dp4793
I1968
(dp4794
sI1969
(dp4795
sI1970
(dp4796
sI1967
(dp4797
ssI1958
(dp4798
I2232
(dp4799
sI2233
(dp4800
ssI1959
(dp4801
I1985
(dp4802
sI1986
(dp4803
sI1987
(dp4804
ssI1960
(dp4805
I2237
(dp4806
sI2238
(dp4807
sI2239
(dp4808
ssI1963
(dp4809
I2464
(dp4810
sI2465
(dp4811
ssI1964
(dp4812
sI1967
(dp4813
sI1968
(dp4814
I2040
(dp4815
sI2038
(dp4816
ssI1969
(dp4817
I2108
(dp4818
sI2109
(dp4819
ssI1970
(dp4820
I2304
(dp4821
sI2303
(dp4822
ssI1971
(dp4823
sI1972
(dp4824
sI1973
(dp4825
sI1978
(dp4826
sI1979
(dp4827
sI1980
(dp4828
sI1981
(dp4829
I2303
(dp4830
ssI1985
(dp4831
I2131
(dp4832
sI2132
(dp4833
ssI1986
(dp4834
I2136
(dp4835
sI2135
(dp4836
ssI1987
(dp4837
I2052
(dp4838
sI2053
(dp4839
ssI1996
(dp4840
I2153
(dp4841
sI2154
(dp4842
ssI1997
(dp4843
sI1998
(dp4844
sI1999
(dp4845
I2024
(dp4846
sI2025
(dp4847
sI2026
(dp4848
sI2027
(dp4849
sI2028
(dp4850
sI2029
(dp4851
ssI2000
(dp4852
I2179
(dp4853
ssI2001
(dp4854
sI2002
(dp4855
sI2003
(dp4856
sI2009
(dp4857
sI2010
(dp4858
I2080
(dp4859
ssI2011
(dp4860
I2432
(dp4861
sI2430
(dp4862
sI2431
(dp4863
ssI2012
(dp4864
I2145
(dp4865
sI2146
(dp4866
ssI2013
(dp4867
I2052
(dp4868
sI2053
(dp4869
ssI2014
(dp4870
sI2015
(dp4871
I2320
(dp4872
sI2321
(dp4873
ssI2016
(dp4874
I2214
(dp4875
sI2215
(dp4876
ssI2017
(dp4877
sI2018
(dp4878
I2104
(dp4879
sI2105
(dp4880
ssI2019
(dp4881
I2376
(dp4882
sI2377
(dp4883
sI2378
(dp4884
sI2375
(dp4885
ssI2020
(dp4886
sI2021
(dp4887
sI2022
(dp4888
sI2023
(dp4889
I2160
(dp4890
sI2161
(dp4891
sI2162
(dp4892
sI2159
(dp4893
ssI2024
(dp4894
I2256
(dp4895
sI2257
(dp4896
sI2254
(dp4897
sI2255
(dp4898
ssI2025
(dp4899
I2043
(dp4900
sI2044
(dp4901
ssI2026
(dp4902
I2441
(dp4903
sI2442
(dp4904
ssI2027
(dp4905
I2401
(dp4906
sI2402
(dp4907
sI2403
(dp4908
sI2404
(dp4909
sI2405
(dp4910
ssI2028
(dp4911
I2103
(dp4912
ssI2029
(dp4913
I2093
(dp4914
ssI2030
(dp4915
sI2031
(dp4916
I2225
(dp4917
ssI2032
(dp4918
sI2033
(dp4919
I2117
(dp4920
sI2118
(dp4921
ssI2034
(dp4922
sI2038
(dp4923
sI2039
(dp4924
I2115
(dp4925
sI2116
(dp4926
ssI2040
(dp4927
sI2043
(dp4928
I2280
(dp4929
sI2281
(dp4930
ssI2044
(dp4931
sI2047
(dp4932
I2169
(dp4933
sI2170
(dp4934
ssI2048
(dp4935
sI2049
(dp4936
sI2052
(dp4937
I2080
(dp4938
sI2079
(dp4939
ssI2053
(dp4940
I2247
(dp4941
ssI2057
(dp4942
I2390
(dp4943
sI2391
(dp4944
ssI2058
(dp4945
I2421
(dp4946
sI2422
(dp4947
ssI2059
(dp4948
sI2060
(dp4949
sI2061
(dp4950
I2411
(dp4951
sI2412
(dp4952
sI2413
(dp4953
sI2414
(dp4954
sI2415
(dp4955
ssI2062
(dp4956
I2152
(dp4957
sI2153
(dp4958
ssI2063
(dp4959
I2219
(dp4960
sI2220
(dp4961
ssI2064
(dp4962
I2165
(dp4963
sI2166
(dp4964
ssI2065
(dp4965
sI2066
(dp4966
sI2067
(dp4967
I2161
(dp4968
ssI2068
(dp4969
sI2069
(dp4970
I2248
(dp4971
ssI2070
(dp4972
I2196
(dp4973
sI2197
(dp4974
ssI2071
(dp4975
I2436
(dp4976
sI2437
(dp4977
ssI2072
(dp4978
I2097
(dp4979
sI2098
(dp4980
ssI2073
(dp4981
sI2074
(dp4982
I2240
(dp4983
sI2241
(dp4984
sI2239
(dp4985
ssI2075
(dp4986
sI2079
(dp4987
sI2080
(dp4988
I2144
(dp4989
sI2145
(dp4990
ssI2083
(dp4991
I2090
(dp4992
ssI2084
(dp4993
I2091
(dp4994
ssI2085
(dp4995
I2092
(dp4996
ssI2088
(dp4997
sI2089
(dp4998
I2152
(dp4999
sI2151
(dp5000
ssI2090
(dp5001
I2208
(dp5002
sI2209
(dp5003
sI2210
(dp5004
sI2205
(dp5005
sI2206
(dp5006
sI2207
(dp5007
ssI2091
(dp5008
sI2092
(dp5009
I2276
(dp5010
ssI2093
(dp5011
sI2094
(dp5012
I2193
(dp5013
sI2191
(dp5014
ssI2097
(dp5015
sI2098
(dp5016
I2187
(dp5017
ssI2102
(dp5018
I2105
(dp5019
ssI2103
(dp5020
I2333
(dp5021
sI2334
(dp5022
sI2335
(dp5023
ssI2104
(dp5024
I2331
(dp5025
sI2332
(dp5026
sI2333
(dp5027
ssI2105
(dp5028
I2395
(dp5029
sI2389
(dp5030
ssI2108
(dp5031
I2232
(dp5032
sI2231
(dp5033
ssI2109
(dp5034
sI2110
(dp5035
I2114
(dp5036
sI2115
(dp5037
ssI2114
(dp5038
I2287
(dp5039
ssI2115
(dp5040
sI2116
(dp5041
I2224
(dp5042
sI2225
(dp5043
ssI2117
(dp5044
I2347
(dp5045
sI2348
(dp5046
sI2349
(dp5047
sI2350
(dp5048
ssI2118
(dp5049
I2274
(dp5050
ssI2121
(dp5051
I2140
(dp5052
ssI2122
(dp5053
I2344
(dp5054
sI2345
(dp5055
sI2346
(dp5056
sI2347
(dp5057
ssI2126
(dp5058
I2178
(dp5059
sI2179
(dp5060
ssI2127
(dp5061
I2248
(dp5062
ssI2128
(dp5063
I2367
(dp5064
ssI2131
(dp5065
I2441
(dp5066
sI2442
(dp5067
ssI2132
(dp5068
sI2135
(dp5069
sI2136
(dp5070
sI2139
(dp5071
I2166
(dp5072
ssI2140
(dp5073
sI2144
(dp5074
sI2145
(dp5075
sI2146
(dp5076
I2213
(dp5077
sI2214
(dp5078
ssI2151
(dp5079
I2182
(dp5080
sI2183
(dp5081
ssI2152
(dp5082
sI2153
(dp5083
sI2154
(dp5084
I2294
(dp5085
sI2295
(dp5086
ssI2156
(dp5087
I2160
(dp5088
ssI2158
(dp5089
I2162
(dp5090
ssI2159
(dp5091
I2251
(dp5092
sI2252
(dp5093
sI2253
(dp5094
sI2254
(dp5095
ssI2160
(dp5096
I2329
(dp5097
sI2330
(dp5098
sI2331
(dp5099
ssI2161
(dp5100
sI2162
(dp5101
sI2165
(dp5102
I2368
(dp5103
ssI2166
(dp5104
I2220
(dp5105
sI2221
(dp5106
ssI2169
(dp5107
I2308
(dp5108
ssI2170
(dp5109
sI2173
(dp5110
sI2174
(dp5111
sI2175
(dp5112
I2366
(dp5113
sI2367
(dp5114
ssI2178
(dp5115
sI2179
(dp5116
sI2182
(dp5117
sI2183
(dp5118
I2392
(dp5119
sI2391
(dp5120
ssI2186
(dp5121
I2233
(dp5122
sI2234
(dp5123
ssI2187
(dp5124
sI2189
(dp5125
I2192
(dp5126
sI2193
(dp5127
ssI2191
(dp5128
sI2192
(dp5129
I2411
(dp5130
sI2412
(dp5131
sI2413
(dp5132
sI2414
(dp5133
sI2415
(dp5134
ssI2193
(dp5135
sI2196
(dp5136
sI2197
(dp5137
sI2200
(dp5138
I2452
(dp5139
sI2453
(dp5140
ssI2201
(dp5141
sI2202
(dp5142
sI2203
(dp5143
sI2204
(dp5144
sI2205
(dp5145
I2277
(dp5146
ssI2206
(dp5147
sI2207
(dp5148
sI2208
(dp5149
sI2209
(dp5150
sI2210
(dp5151
I2401
(dp5152
sI2402
(dp5153
sI2403
(dp5154
sI2404
(dp5155
sI2405
(dp5156
ssI2213
(dp5157
sI2214
(dp5158
sI2215
(dp5159
sI2218
(dp5160
I2219
(dp5161
sI2221
(dp5162
ssI2219
(dp5163
sI2220
(dp5164
I2401
(dp5165
sI2402
(dp5166
sI2403
(dp5167
sI2404
(dp5168
sI2405
(dp5169
ssI2221
(dp5170
sI2224
(dp5171
sI2225
(dp5172
sI2226
(dp5173
I2230
(dp5174
sI2231
(dp5175
ssI2230
(dp5176
sI2231
(dp5177
I2422
(dp5178
ssI2232
(dp5179
sI2233
(dp5180
I2289
(dp5181
ssI2234
(dp5182
I2296
(dp5183
sI2295
(dp5184
ssI2237
(dp5185
I2288
(dp5186
ssI2238
(dp5187
sI2239
(dp5188
I2273
(dp5189
sI2274
(dp5190
sI2275
(dp5191
sI2276
(dp5192
sI2277
(dp5193
ssI2240
(dp5194
sI2241
(dp5195
sI2244
(dp5196
I2248
(dp5197
sI2247
(dp5198
ssI2247
(dp5199
sI2248
(dp5200
I2355
(dp5201
sI2356
(dp5202
sI2357
(dp5203
sI2358
(dp5204
ssI2251
(dp5205
sI2252
(dp5206
sI2253
(dp5207
sI2254
(dp5208
I2425
(dp5209
sI2426
(dp5210
ssI2255
(dp5211
I2368
(dp5212
sI2367
(dp5213
ssI2256
(dp5214
I2316
(dp5215
sI2317
(dp5216
ssI2257
(dp5217
I2264
(dp5218
sI2265
(dp5219
sI2263
(dp5220
ssI2260
(dp5221
I2265
(dp5222
sI2266
(dp5223
sI2267
(dp5224
ssI2261
(dp5225
sI2262
(dp5226
sI2263
(dp5227
I2422
(dp5228
ssI2264
(dp5229
sI2265
(dp5230
sI2266
(dp5231
I2280
(dp5232
sI2281
(dp5233
ssI2267
(dp5234
I2448
(dp5235
sI2449
(dp5236
ssI2273
(dp5237
sI2274
(dp5238
I2411
(dp5239
sI2412
(dp5240
sI2413
(dp5241
sI2414
(dp5242
sI2415
(dp5243
ssI2275
(dp5244
I2355
(dp5245
sI2356
(dp5246
sI2357
(dp5247
sI2358
(dp5248
ssI2276
(dp5249
I2378
(dp5250
sI2379
(dp5251
sI2380
(dp5252
sI2381
(dp5253
ssI2277
(dp5254
I2456
(dp5255
sI2457
(dp5256
ssI2280
(dp5257
sI2281
(dp5258
I2473
(dp5259
sI2474
(dp5260
sI2475
(dp5261
ssI2282
(dp5262
I2288
(dp5263
sI2289
(dp5264
sI2286
(dp5265
sI2287
(dp5266
ssI2286
(dp5267
I2339
(dp5268
sI2340
(dp5269
sI2341
(dp5270
ssI2287
(dp5271
I2304
(dp5272
ssI2288
(dp5273
sI2289
(dp5274
sI2292
(dp5275
I2296
(dp5276
sI2297
(dp5277
ssI2294
(dp5278
I2312
(dp5279
sI2313
(dp5280
ssI2295
(dp5281
sI2296
(dp5282
I2421
(dp5283
ssI2297
(dp5284
I2366
(dp5285
ssI2298
(dp5286
I2303
(dp5287
ssI2302
(dp5288
I2304
(dp5289
ssI2303
(dp5290
sI2304
(dp5291
sI2307
(dp5292
I2309
(dp5293
ssI2308
(dp5294
sI2309
(dp5295
sI2312
(dp5296
I2368
(dp5297
ssI2313
(dp5298
sI2316
(dp5299
sI2317
(dp5300
sI2320
(dp5301
I2324
(dp5302
sI2325
(dp5303
ssI2321
(dp5304
sI2324
(dp5305
sI2325
(dp5306
sI2329
(dp5307
sI2330
(dp5308
sI2331
(dp5309
I2394
(dp5310
sI2395
(dp5311
ssI2332
(dp5312
sI2333
(dp5313
sI2334
(dp5314
sI2335
(dp5315
I2461
(dp5316
ssI2338
(dp5317
I2341
(dp5318
ssI2339
(dp5319
sI2340
(dp5320
sI2341
(dp5321
sI2344
(dp5322
sI2345
(dp5323
sI2346
(dp5324
sI2347
(dp5325
sI2348
(dp5326
sI2349
(dp5327
sI2350
(dp5328
I2389
(dp5329
sI2390
(dp5330
ssI2355
(dp5331
I2411
(dp5332
sI2412
(dp5333
sI2413
(dp5334
sI2414
(dp5335
sI2415
(dp5336
ssI2356
(dp5337
sI2357
(dp5338
sI2358
(dp5339
I2393
(dp5340
sI2394
(dp5341
ssI2360
(dp5342
I2366
(dp5343
ssI2366
(dp5344
sI2367
(dp5345
sI2368
(dp5346
sI2369
(dp5347
I2372
(dp5348
sI2373
(dp5349
sI2374
(dp5350
sI2375
(dp5351
ssI2372
(dp5352
sI2373
(dp5353
sI2374
(dp5354
sI2375
(dp5355
sI2376
(dp5356
sI2377
(dp5357
sI2378
(dp5358
I2449
(dp5359
ssI2379
(dp5360
sI2380
(dp5361
sI2381
(dp5362
sI2385
(dp5363
I2392
(dp5364
sI2393
(dp5365
ssI2389
(dp5366
sI2390
(dp5367
I2453
(dp5368
ssI2391
(dp5369
sI2392
(dp5370
sI2393
(dp5371
sI2394
(dp5372
sI2395
(dp5373
I2401
(dp5374
sI2402
(dp5375
sI2403
(dp5376
sI2404
(dp5377
sI2405
(dp5378
ssI2401
(dp5379
sI2402
(dp5380
sI2403
(dp5381
sI2404
(dp5382
sI2405
(dp5383
sI2409
(dp5384
I2411
(dp5385
sI2412
(dp5386
sI2413
(dp5387
sI2414
(dp5388
sI2415
(dp5389
ssI2411
(dp5390
sI2412
(dp5391
sI2413
(dp5392
sI2414
(dp5393
sI2415
(dp5394
I2456
(dp5395
sI2457
(dp5396
ssI2421
(dp5397
sI2422
(dp5398
I2426
(dp5399
ssI2425
(dp5400
sI2426
(dp5401
sI2430
(dp5402
sI2431
(dp5403
sI2432
(dp5404
I2447
(dp5405
ssI2434
(dp5406
I2437
(dp5407
sI2438
(dp5408
ssI2436
(dp5409
sI2437
(dp5410
sI2438
(dp5411
I2465
(dp5412
ssI2441
(dp5413
sI2442
(dp5414
sI2447
(dp5415
sI2448
(dp5416
I2460
(dp5417
sI2461
(dp5418
ssI2449
(dp5419
sI2452
(dp5420
sI2453
(dp5421
sI2456
(dp5422
sI2457
(dp5423
sI2460
(dp5424
sI2461
(dp5425
sI2464
(dp5426
sI2465
(dp5427
sI2469
(dp5428
sI2470
(dp5429
sI2471
(dp5430
sI2472
(dp5431
sI2473
(dp5432
sI2474
(dp5433
sI2475
(dp5434
ssS'edge'
p5435
g1420
sS'pred'
p5436
(dp5437
I1
(dp5438
sI2
(dp5439
sI3
(dp5440
sI4
(dp5441
sI5
(dp5442
sI6
(dp5443
I1
g1423
ssI7
(dp5444
I1
g1424
ssI8
(dp5445
I1
g1422
sI2
g1426
ssI9
(dp5446
I2
g1427
ssI10
(dp5447
I2
g1428
sI3
g1430
ssI11
(dp5448
I3
g1431
ssI12
(dp5449
I3
g1432
sI4
g1434
ssI13
(dp5450
I4
g1435
ssI14
(dp5451
I4
g1436
sI5
g1439
ssI15
(dp5452
I5
g1440
ssI16
(dp5453
I5
g1438
ssI19
(dp5454
I8
g1447
ssI20
(dp5455
I8
g1448
sI7
g1445
ssI23
(dp5456
I10
g1456
sI14
g1471
ssI24
(dp5457
I10
g1455
sI14
g1470
ssI28
(dp5458
I6
g1442
ssI29
(dp5459
I11
g1458
sI6
g1443
ssI30
(dp5460
I11
g1459
sI20
g1487
ssI35
(dp5461
I24
g1492
sI9
g1450
sI19
g1482
sI15
g1473
ssI36
(dp5462
I24
g1493
sI9
g1451
sI19
g1483
sI15
g1474
ssI37
(dp5463
I24
g1494
sI9
g1452
sI19
g1484
sI15
g1475
ssI38
(dp5464
I24
g1495
sI9
g1453
sI19
g1485
sI15
g1476
ssI42
(dp5465
I16
g1478
sI35
g1513
sI37
g1524
ssI43
(dp5466
I16
g1479
sI35
g1514
sI37
g1525
ssI44
(dp5467
I16
g1480
sI35
g1515
sI37
g1526
ssI51
(dp5468
I36
g1517
sI38
g1528
sI42
g1535
sI13
g1463
sI28
g1497
sI29
g1504
ssI52
(dp5469
I36
g1518
sI38
g1529
sI42
g1536
sI13
g1464
sI28
g1498
sI29
g1505
ssI53
(dp5470
I36
g1519
sI38
g1530
sI42
g1537
sI13
g1465
sI28
g1499
sI29
g1506
ssI54
(dp5471
I36
g1520
sI38
g1531
sI42
g1538
sI13
g1466
sI28
g1500
sI29
g1507
ssI55
(dp5472
I36
g1521
sI38
g1532
sI42
g1539
sI13
g1467
sI28
g1501
sI29
g1508
ssI56
(dp5473
I36
g1522
sI38
g1533
sI42
g1540
sI13
g1468
sI28
g1502
sI29
g1509
ssI59
(dp5474
I54
g1555
ssI60
(dp5475
I44
g1545
sI54
g1556
ssI63
(dp5476
sI64
(dp5477
sI65
(dp5478
sI66
(dp5479
sI68
(dp5480
sI70
(dp5481
I59
g1563
sI12
g1461
sI63
g1568
ssI71
(dp5482
I64
g1571
sI65
g1574
sI63
g1569
ssI72
(dp5483
I65
g1573
sI66
g1576
sI43
g1542
ssI73
(dp5484
I43
g1543
sI68
g1578
sI30
g1511
ssI76
(dp5485
I23
g1489
sI71
g1582
ssI77
(dp5486
I23
g1490
sI71
g1583
ssI80
(dp5487
I52
g1549
ssI81
(dp5488
I52
g1550
sI77
g1594
ssI82
(dp5489
I77
g1595
ssI85
(dp5490
I76
g1591
ssI86
(dp5491
I51
g1547
sI76
g1592
ssI90
(dp5492
I81
g1600
ssI91
(dp5493
I80
g1597
sI81
g1601
ssI92
(dp5494
I80
g1598
sI56
g1561
ssI93
(dp5495
sI98
(dp5496
I93
g1619
ssI99
(dp5497
I72
g1585
sI93
g1620
ssI100
(dp5498
I72
g1586
sI60
g1565
ssI101
(dp5499
I91
g1613
sI60
g1566
ssI102
(dp5500
I91
g1614
sI86
g1608
ssI105
(dp5501
I101
g1630
sI55
g1558
ssI106
(dp5502
I101
g1631
sI55
g1559
ssI110
(dp5503
sI112
(dp5504
I102
g1633
ssI113
(dp5505
I92
g1616
sI102
g1634
ssI114
(dp5506
I105
g1636
sI92
g1617
ssI115
(dp5507
I105
g1637
sI110
g1641
ssI116
(dp5508
I85
g1605
sI110
g1642
ssI117
(dp5509
I85
g1606
ssI126
(dp5510
I53
g1552
ssI127
(dp5511
I117
g1663
sI53
g1553
ssI128
(dp5512
I98
g1622
sI117
g1662
ssI129
(dp5513
I112
g1644
sI98
g1623
ssI130
(dp5514
I112
g1645
sI113
g1647
ssI131
(dp5515
I113
g1648
sI90
g1610
ssI132
(dp5516
I73
g1588
sI90
g1611
ssI133
(dp5517
I73
g1589
sI100
g1627
ssI134
(dp5518
I100
g1628
ssI139
(dp5519
sI144
(dp5520
I82
g1603
sI130
g1676
sI134
g1686
ssI145
(dp5521
I130
g1677
sI139
g1688
sI133
g1684
ssI146
(dp5522
I106
g1639
sI139
g1689
sI132
g1681
ssI147
(dp5523
I99
g1625
sI132
g1682
sI70
g1580
ssI152
(dp5524
sI155
(dp5525
I144
g1691
sI115
g1656
sI131
g1679
sI126
g1665
ssI156
(dp5526
I152
g1702
sI145
g1693
sI126
g1666
sI127
g1668
ssI160
(dp5527
I129
g1673
sI147
g1699
ssI161
(dp5528
I129
g1674
sI155
g1704
ssI162
(dp5529
I155
g1705
sI147
g1700
ssI165
(dp5530
I146
g1695
ssI166
(dp5531
I146
g1696
ssI167
(dp5532
I146
g1697
sI116
g1660
ssI168
(dp5533
I116
g1658
ssI169
(dp5534
I116
g1659
ssI172
(dp5535
I156
g1707
ssI173
(dp5536
I168
g1733
sI156
g1708
ssI177
(dp5537
I128
g1670
sI165
g1721
ssI178
(dp5538
I165
g1722
sI166
g1724
ssI179
(dp5539
I128
g1671
sI166
g1725
ssI185
(dp5540
I177
g1747
sI114
g1650
sI172
g1738
sI162
g1715
sI167
g1727
ssI186
(dp5541
I177
g1748
sI114
g1651
sI172
g1739
sI162
g1716
sI167
g1728
ssI187
(dp5542
I177
g1749
sI114
g1652
sI172
g1740
sI162
g1717
sI167
g1729
ssI188
(dp5543
I177
g1750
sI114
g1653
sI172
g1741
sI162
g1718
sI167
g1730
ssI189
(dp5544
I177
g1751
sI114
g1654
sI172
g1742
sI162
g1719
sI167
g1731
ssI190
(dp5545
sI195
(dp5546
I169
g1735
sI190
g1773
ssI196
(dp5547
I188
g1767
sI190
g1774
ssI197
(dp5548
I185
g1758
sI188
g1768
ssI198
(dp5549
I185
g1759
sI187
g1764
ssI199
(dp5550
I169
g1736
sI187
g1765
ssI202
(dp5551
I196
g1778
ssI203
(dp5552
I160
g1710
sI196
g1779
ssI206
(dp5553
I178
g1753
ssI207
(dp5554
I178
g1754
sI179
g1756
ssI209
(dp5555
sI210
(dp5556
sI211
(dp5557
sI213
(dp5558
I197
g1781
sI189
g1771
ssI214
(dp5559
I209
g1799
sI197
g1782
ssI215
(dp5560
I209
g1800
sI210
g1803
ssI216
(dp5561
I210
g1802
sI211
g1805
ssI217
(dp5562
I211
g1806
sI189
g1770
ssI220
(dp5563
sI221
(dp5564
I215
g1813
ssI222
(dp5565
I203
g1791
sI215
g1814
ssI223
(dp5566
I203
g1792
sI220
g1821
ssI227
(dp5567
I221
g1823
sI206
g1794
ssI228
(dp5568
I195
g1776
sI206
g1795
ssI231
(dp5569
I222
g1826
ssI232
(dp5570
I222
g1825
sI207
g1797
ssI238
(dp5571
sI246
(dp5572
I217
g1819
sI199
g1787
sI161
g1712
ssI247
(dp5573
I232
g1838
sI161
g1713
sI173
g1745
ssI248
(dp5574
I214
g1810
sI173
g1744
sI238
g1840
ssI249
(dp5575
I186
g1761
sI227
g1831
sI214
g1811
ssI250
(dp5576
I186
g1762
sI231
g1836
sI223
g1828
ssI251
(dp5577
I202
g1789
sI213
g1808
sI223
g1829
ssI254
(dp5578
I249
g1858
ssI255
(dp5579
I249
g1859
sI246
g1842
ssI258
(dp5580
I228
g1833
sI198
g1784
ssI259
(dp5581
I228
g1834
sI198
g1785
ssI263
(dp5582
I251
g1865
sI255
g1873
ssI264
(dp5583
I250
g1861
sI251
g1864
ssI265
(dp5584
I250
g1862
sI255
g1872
ssI268
(dp5585
I216
g1816
ssI269
(dp5586
I216
g1817
sI263
g1885
ssI270
(dp5587
I263
g1886
ssI271
(dp5588
sI273
(dp5589
sI275
(dp5590
sI276
(dp5591
I264
g1888
sI271
g1910
ssI277
(dp5592
I264
g1889
sI273
g1912
ssI278
(dp5593
I273
g1913
sI270
g1907
ssI279
(dp5594
I275
g1915
sI270
g1908
ssI286
(dp5595
I258
g1879
sI265
g1895
sI269
g1904
sI277
g1925
sI247
g1848
sI248
g1855
ssI287
(dp5596
I258
g1880
sI265
g1896
sI269
g1905
sI277
g1926
sI247
g1849
sI248
g1856
ssI288
(dp5597
I258
g1875
sI265
g1891
sI269
g1900
sI277
g1921
sI247
g1844
sI248
g1851
ssI289
(dp5598
I258
g1876
sI265
g1892
sI269
g1901
sI277
g1922
sI247
g1845
sI248
g1852
ssI290
(dp5599
I258
g1877
sI265
g1893
sI269
g1902
sI277
g1923
sI247
g1846
sI248
g1853
ssI291
(dp5600
I258
g1878
sI265
g1894
sI269
g1903
sI277
g1924
sI247
g1847
sI248
g1854
ssI294
(dp5601
I259
g1882
ssI295
(dp5602
I259
g1883
sI268
g1898
ssI299
(dp5603
I287
g1944
sI276
g1917
sI295
g1971
ssI300
(dp5604
I287
g1945
sI276
g1918
sI295
g1972
ssI301
(dp5605
I287
g1946
sI276
g1919
sI295
g1973
ssI305
(dp5606
I290
g1957
ssI306
(dp5607
I289
g1955
sI290
g1958
ssI307
(dp5608
I290
g1959
sI299
g1975
ssI308
(dp5609
sI312
(dp5610
I306
g1997
sI308
g2007
sI294
g1966
sI254
g1867
ssI313
(dp5611
I306
g1998
sI308
g2008
sI294
g1967
sI254
g1868
ssI314
(dp5612
I306
g1999
sI308
g2009
sI294
g1968
sI254
g1869
ssI315
(dp5613
I306
g2000
sI308
g2010
sI294
g1969
sI254
g1870
ssI318
(dp5614
sI320
(dp5615
I312
g2012
sI307
g2002
sI291
g1961
sI318
g2034
ssI321
(dp5616
I312
g2013
sI307
g2003
sI291
g1962
sI318
g2035
ssI322
(dp5617
I312
g2014
sI307
g2004
sI291
g1963
sI318
g2036
ssI323
(dp5618
I312
g2015
sI307
g2005
sI291
g1964
sI318
g2037
ssI327
(dp5619
I320
g2041
sI321
g2045
sI314
g2026
ssI328
(dp5620
I320
g2039
sI321
g2043
sI314
g2024
ssI329
(dp5621
I320
g2040
sI321
g2044
sI314
g2025
ssI336
(dp5622
I288
g1948
sI327
g2055
sI300
g1977
sI301
g1984
sI279
g1934
sI313
g2017
ssI337
(dp5623
I288
g1949
sI327
g2056
sI300
g1978
sI301
g1985
sI279
g1935
sI313
g2018
ssI338
(dp5624
I288
g1950
sI327
g2057
sI300
g1979
sI301
g1986
sI279
g1936
sI313
g2019
ssI339
(dp5625
I288
g1951
sI327
g2058
sI300
g1980
sI301
g1987
sI279
g1937
sI313
g2020
ssI340
(dp5626
I288
g1952
sI327
g2059
sI300
g1981
sI301
g1988
sI279
g1938
sI313
g2021
ssI341
(dp5627
I288
g1953
sI327
g2060
sI300
g1982
sI301
g1989
sI279
g1939
sI313
g2022
ssI347
(dp5628
I337
g2069
sI315
g2028
sI341
g2082
sI278
g1928
sI305
g1991
ssI348
(dp5629
I337
g2070
sI315
g2029
sI341
g2083
sI278
g1929
sI305
g1992
ssI349
(dp5630
I337
g2071
sI315
g2030
sI341
g2084
sI278
g1930
sI305
g1993
ssI350
(dp5631
I337
g2072
sI315
g2031
sI341
g2085
sI278
g1931
sI305
g1994
ssI351
(dp5632
I337
g2073
sI315
g2032
sI341
g2086
sI278
g1932
sI305
g1995
ssI353
(dp5633
sI354
(dp5634
sI357
(dp5635
sI359
(dp5636
sI366
(dp5637
sI369
(dp5638
I329
g2065
sI354
g2100
sI349
g2092
sI286
g1941
sI353
g2098
ssI370
(dp5639
I338
g2075
sI339
g2077
sI357
g2102
sI286
g1942
sI359
g2104
ssI371
(dp5640
I328
g2062
sI336
g2067
sI339
g2078
sI350
g2094
sI351
g2096
ssI372
(dp5641
I328
g2063
sI322
g2047
sI347
g2088
sI348
g2090
sI366
g2106
ssI377
(dp5642
I369
g2108
ssI378
(dp5643
I369
g2109
ssI379
(dp5644
I369
g2110
ssI380
(dp5645
I369
g2111
ssI381
(dp5646
I369
g2112
sI323
g2051
ssI382
(dp5647
I323
g2052
ssI383
(dp5648
I323
g2053
ssI384
(dp5649
I323
g2049
ssI385
(dp5650
I323
g2050
sI371
g2116
ssI386
(dp5651
I371
g2117
ssI387
(dp5652
I371
g2118
ssI388
(dp5653
I371
g2119
ssI389
(dp5654
I371
g2120
sI372
g2124
ssI390
(dp5655
I372
g2125
ssI391
(dp5656
I372
g2126
ssI392
(dp5657
I372
g2122
ssI393
(dp5658
I372
g2123
ssI397
(dp5659
I392
g2167
sI382
g2141
ssI398
(dp5660
I378
g2130
sI382
g2142
ssI399
(dp5661
I392
g2168
sI378
g2131
ssI401
(dp5662
sI407
(dp5663
I401
g2182
sI386
g2152
ssI408
(dp5664
I401
g2181
sI388
g2156
ssI409
(dp5665
I388
g2157
sI399
g2178
ssI410
(dp5666
I390
g2161
sI399
g2179
ssI411
(dp5667
I393
g2170
sI390
g2162
ssI412
(dp5668
I393
g2171
sI387
g2154
ssI416
(dp5669
sI418
(dp5670
I407
g2184
ssI419
(dp5671
I384
g2146
sI407
g2185
ssI420
(dp5672
I384
g2147
sI412
g2197
ssI421
(dp5673
I416
g2200
sI412
g2198
ssI422
(dp5674
I416
g2201
sI389
g2159
ssI430
(dp5675
I377
g2128
sI410
g2192
sI409
g2190
ssI431
(dp5676
I410
g2193
sI340
g2080
sI397
g2174
ssI432
(dp5677
I370
g2114
sI381
g2139
sI397
g2173
ssI438
(dp5678
I385
g2149
ssI439
(dp5679
I432
g2221
sI385
g2150
ssI440
(dp5680
I432
g2220
sI418
g2203
ssI441
(dp5681
I418
g2204
sI421
g2211
ssI442
(dp5682
I421
g2212
sI430
g2216
ssI450
(dp5683
I408
g2187
sI442
g2234
sI411
g2195
sI431
g2218
ssI451
(dp5684
I408
g2188
sI422
g2214
sI398
g2176
sI383
g2144
ssI454
(dp5685
I450
g2236
sI439
g2226
ssI455
(dp5686
I450
g2237
sI439
g2227
ssI458
(dp5687
I438
g2223
sI455
g2244
ssI459
(dp5688
I438
g2224
sI455
g2245
ssI462
(dp5689
I458
g2247
sI379
g2133
ssI463
(dp5690
I458
g2248
sI379
g2134
ssI467
(dp5691
I420
g2208
sI462
g2253
ssI468
(dp5692
I459
g2250
sI420
g2209
ssI469
(dp5693
I459
g2251
sI462
g2254
ssI472
(dp5694
I440
g2229
ssI473
(dp5695
I440
g2230
sI391
g2164
ssI474
(dp5696
I391
g2165
ssI477
(dp5697
I468
g2261
ssI478
(dp5698
I474
g2272
sI468
g2262
ssI481
(dp5699
I467
g2258
ssI482
(dp5700
I467
g2259
sI454
g2242
ssI485
(dp5701
I472
g2266
sI380
g2136
ssI486
(dp5702
I472
g2267
sI380
g2137
ssI490
(dp5703
I478
g2276
ssI491
(dp5704
I482
g2282
sI478
g2277
ssI492
(dp5705
I482
g2283
sI419
g2206
ssI496
(dp5706
I481
g2279
ssI497
(dp5707
I481
g2280
sI490
g2290
ssI498
(dp5708
I490
g2291
sI469
g2264
ssI499
(dp5709
sI504
(dp5710
I491
g2293
sI499
g2310
ssI505
(dp5711
I498
g2307
sI491
g2294
ssI506
(dp5712
I498
g2308
sI485
g2285
ssI507
(dp5713
I441
g2232
sI485
g2286
ssI510
(dp5714
sI511
(dp5715
sI512
(dp5716
I473
g2269
sI492
g2296
ssI513
(dp5717
I473
g2270
sI510
g2329
ssI514
(dp5718
I510
g2330
sI511
g2332
ssI521
(dp5719
I505
g2315
ssI522
(dp5720
I505
g2316
sI514
g2341
ssI523
(dp5721
I505
g2317
sI486
g2288
ssI524
(dp5722
I505
g2318
sI506
g2322
ssI525
(dp5723
I497
g2305
sI505
g2319
ssI526
(dp5724
I513
g2339
sI505
g2320
ssI531
(dp5725
I521
g2343
sI451
g2239
ssI532
(dp5726
I521
g2344
sI522
g2346
ssI533
(dp5727
I522
g2347
sI526
g2357
ssI534
(dp5728
I451
g2240
sI526
g2358
ssI538
(dp5729
I523
g2349
ssI539
(dp5730
I523
g2350
sI524
g2352
ssI540
(dp5731
I531
g2360
sI524
g2353
ssI541
(dp5732
sI545
(dp5733
I512
g2334
sI538
g2371
sI507
g2324
sI541
g2380
ssI546
(dp5734
I512
g2335
sI538
g2372
sI507
g2325
sI541
g2381
ssI547
(dp5735
I512
g2336
sI538
g2373
sI507
g2326
sI541
g2382
ssI548
(dp5736
I512
g2337
sI538
g2374
sI507
g2327
sI541
g2383
ssI549
(dp5737
sI556
(dp5738
I547
g2390
sI549
g2395
ssI557
(dp5739
I547
g2391
sI532
g2362
ssI558
(dp5740
I532
g2363
sI534
g2368
ssI559
(dp5741
I504
g2313
sI534
g2369
ssI560
(dp5742
I504
g2312
sI533
g2365
ssI561
(dp5743
I539
g2376
sI533
g2366
ssI564
(dp5744
sI566
(dp5745
sI567
(dp5746
sI568
(dp5747
sI572
(dp5748
I560
g2412
sI548
g2393
sI564
g2418
sI463
g2256
ssI573
(dp5749
I560
g2413
sI568
g2424
sI566
g2420
sI567
g2422
ssI574
(dp5750
I568
g2425
sI540
g2378
sI477
g2274
sI525
g2355
ssI577
(dp5751
I545
g2385
ssI578
(dp5752
I545
g2386
sI546
g2388
ssI581
(dp5753
I556
g2397
ssI582
(dp5754
I577
g2435
sI556
g2398
ssI584
(dp5755
sI586
(dp5756
I561
g2415
ssI587
(dp5757
I584
g2453
sI561
g2416
ssI588
(dp5758
I584
g2454
sI574
g2433
ssI595
(dp5759
I581
g2439
sI582
g2446
sI587
g2460
sI588
g2467
sI559
g2405
sI496
g2298
ssI596
(dp5760
I581
g2440
sI582
g2447
sI587
g2461
sI588
g2468
sI559
g2406
sI496
g2299
ssI597
(dp5761
I581
g2441
sI582
g2448
sI587
g2462
sI588
g2469
sI559
g2407
sI496
g2300
ssI598
(dp5762
I581
g2442
sI582
g2449
sI587
g2463
sI588
g2470
sI559
g2408
sI496
g2301
ssI599
(dp5763
I581
g2443
sI582
g2450
sI587
g2464
sI588
g2471
sI559
g2409
sI496
g2302
ssI600
(dp5764
I581
g2444
sI582
g2451
sI587
g2465
sI588
g2472
sI559
g2410
sI496
g2303
ssI604
(dp5765
I586
g2456
ssI605
(dp5766
I586
g2457
sI578
g2437
ssI606
(dp5767
I586
g2458
sI597
g2479
ssI609
(dp5768
I604
g2488
ssI610
(dp5769
I604
g2489
sI596
g2477
ssI613
(dp5770
I573
g2430
ssI614
(dp5771
I573
g2431
sI599
g2483
ssI617
(dp5772
I600
g2485
sI609
g2496
ssI618
(dp5773
I600
g2486
sI609
g2497
ssI623
(dp5774
I610
g2500
ssI624
(dp5775
I610
g2499
sI572
g2427
ssI625
(dp5776
I572
g2428
sI558
g2402
ssI626
(dp5777
I595
g2474
sI558
g2403
ssI627
(dp5778
I595
g2475
ssI630
(dp5779
I617
g2507
ssI631
(dp5780
I617
g2508
sI614
g2505
ssI634
(dp5781
I631
g2530
ssI635
(dp5782
I625
g2516
sI631
g2531
ssI636
(dp5783
sI637
(dp5784
sI639
(dp5785
sI641
(dp5786
sI642
(dp5787
I636
g2540
ssI643
(dp5788
I636
g2541
sI637
g2543
ssI644
(dp5789
I627
g2525
sI637
g2544
ssI645
(dp5790
I627
g2526
sI639
g2546
ssI646
(dp5791
I613
g2502
sI639
g2547
ssI647
(dp5792
I641
g2549
sI613
g2503
ssI650
(dp5793
I634
g2533
ssI651
(dp5794
I634
g2534
ssI652
(dp5795
I634
g2535
ssI653
(dp5796
I634
g2536
sI644
g2557
ssI654
(dp5797
I644
g2558
ssI655
(dp5798
I644
g2559
ssI656
(dp5799
I644
g2556
ssI674
(dp5800
I624
g2514
sI655
g2585
sI557
g2400
sI630
g2528
sI647
g2566
ssI675
(dp5801
I656
g2587
sI652
g2579
sI653
g2581
sI598
g2481
sI647
g2567
ssI676
(dp5802
I656
g2588
sI650
g2569
sI643
g2554
sI645
g2561
sI606
g2494
ssI677
(dp5803
I650
g2570
sI635
g2538
sI618
g2510
sI654
g2583
sI623
g2512
ssI680
(dp5804
I675
g2592
ssI681
(dp5805
I642
g2551
sI675
g2593
ssI682
(dp5806
I642
g2552
ssI686
(dp5807
I682
g2607
ssI687
(dp5808
I682
g2608
ssI688
(dp5809
I682
g2609
ssI689
(dp5810
I682
g2610
ssI690
(dp5811
I682
g2611
ssI691
(dp5812
I626
g2518
sI682
g2612
ssI692
(dp5813
I626
g2519
ssI693
(dp5814
I626
g2520
ssI694
(dp5815
I626
g2521
ssI695
(dp5816
I626
g2522
ssI696
(dp5817
I626
g2523
sI651
g2572
ssI697
(dp5818
I651
g2573
ssI698
(dp5819
I651
g2574
ssI699
(dp5820
I651
g2575
ssI700
(dp5821
I651
g2576
ssI701
(dp5822
I651
g2577
ssI704
(dp5823
I688
g2620
ssI705
(dp5824
I688
g2621
sI689
g2623
ssI708
(dp5825
I700
g2652
ssI709
(dp5826
I700
g2653
sI687
g2617
ssI710
(dp5827
I687
g2618
ssI713
(dp5828
I680
g2601
sI677
g2598
ssI714
(dp5829
I680
g2602
sI677
g2599
ssI719
(dp5830
I698
g2647
ssI720
(dp5831
I698
g2644
sI694
g2635
ssI721
(dp5832
I698
g2645
sI709
g2665
ssI722
(dp5833
I697
g2642
sI698
g2646
ssI727
(dp5834
I713
g2669
sI695
g2638
ssI728
(dp5835
I605
g2491
sI695
g2637
ssI729
(dp5836
I674
g2590
sI605
g2492
ssI737
(dp5837
I728
g2686
sI692
g2629
sI690
g2625
sI708
g2663
ssI738
(dp5838
I721
g2679
sI714
g2671
sI692
g2630
sI710
g2667
ssI744
(dp5839
I737
g2690
sI719
g2673
sI727
g2684
ssI745
(dp5840
I696
g2640
sI729
g2688
sI719
g2674
ssI748
(dp5841
sI749
(dp5842
I686
g2614
ssI750
(dp5843
I722
g2681
sI686
g2615
ssI751
(dp5844
I722
g2682
sI748
g2700
ssI752
(dp5845
I748
g2699
ssI755
(dp5846
I693
g2632
ssI756
(dp5847
I705
g2661
sI693
g2633
ssI758
(dp5848
sI760
(dp5849
I755
g2713
sI749
g2702
ssI761
(dp5850
I749
g2703
sI758
g2720
ssI762
(dp5851
I755
g2714
sI758
g2721
ssI766
(dp5852
I699
g2649
ssI767
(dp5853
I699
g2650
sI750
g2706
ssI768
(dp5854
I720
g2676
sI750
g2705
ssI769
(dp5855
I720
g2677
ssI772
(dp5856
I744
g2694
sI761
g2725
ssI773
(dp5857
I744
g2695
sI761
g2726
ssI776
(dp5858
I751
g2708
ssI777
(dp5859
I769
g2739
sI751
g2709
ssI781
(dp5860
sI782
(dp5861
sI783
(dp5862
I767
g2735
ssI784
(dp5863
I701
g2655
sI767
g2734
ssI785
(dp5864
I704
g2658
sI701
g2656
ssI786
(dp5865
I704
g2659
sI781
g2753
ssI787
(dp5866
I781
g2754
sI782
g2756
ssI788
(dp5867
I782
g2757
ssI789
(dp5868
sI794
(dp5869
I752
g2711
sI789
g2780
sI783
g2759
ssI795
(dp5870
I738
g2692
sI691
g2627
sI783
g2760
ssI798
(dp5871
I786
g2772
ssI799
(dp5872
I794
g2782
sI786
g2773
ssI801
(dp5873
sI803
(dp5874
I777
g2750
sI773
g2744
ssI804
(dp5875
I777
g2751
sI801
g2794
ssI805
(dp5876
I801
g2795
sI773
g2745
ssI810
(dp5877
I772
g2741
ssI811
(dp5878
I762
g2728
sI772
g2742
ssI812
(dp5879
I762
g2729
sI787
g2775
ssI813
(dp5880
I787
g2776
sI676
g2595
ssI814
(dp5881
I676
g2596
ssI821
(dp5882
I813
g2815
ssI822
(dp5883
I768
g2737
sI813
g2816
ssI823
(dp5884
I795
g2784
sI813
g2817
ssI824
(dp5885
I805
g2801
sI813
g2818
ssI825
(dp5886
I745
g2697
sI813
g2819
ssI826
(dp5887
I813
g2820
sI814
g2822
ssI830
(dp5888
I810
g2804
ssI831
(dp5889
I824
g2837
sI810
g2805
ssI832
(dp5890
I810
g2803
sI788
g2778
ssI833
(dp5891
sI836
(dp5892
I833
g2863
ssI837
(dp5893
I833
g2864
ssI838
(dp5894
I825
g2840
sI833
g2865
ssI839
(dp5895
I825
g2841
ssI840
(dp5896
I825
g2839
sI756
g2716
ssI841
(dp5897
I756
g2717
ssI842
(dp5898
I756
g2718
ssI845
(dp5899
I766
g2731
sI646
g2563
ssI846
(dp5900
I766
g2732
sI646
g2564
ssI849
(dp5901
I811
g2807
ssI850
(dp5902
I760
g2723
sI811
g2808
ssI855
(dp5903
I784
g2765
sI785
g2770
sI812
g2813
sI798
g2789
ssI856
(dp5904
I784
g2762
sI785
g2767
sI812
g2810
sI798
g2786
ssI857
(dp5905
I784
g2763
sI785
g2768
sI812
g2811
sI798
g2787
ssI858
(dp5906
I784
g2764
sI785
g2769
sI812
g2812
sI798
g2788
ssI862
(dp5907
I855
g2917
ssI863
(dp5908
I831
g2854
sI855
g2918
ssI864
(dp5909
I849
g2908
sI831
g2853
ssI867
(dp5910
I839
g2879
ssI868
(dp5911
I836
g2867
sI839
g2880
ssI869
(dp5912
I836
g2868
ssI872
(dp5913
I850
g2910
ssI873
(dp5914
I850
g2911
ssI874
(dp5915
I850
g2912
ssI875
(dp5916
I850
g2913
ssI876
(dp5917
I850
g2914
ssI877
(dp5918
I857
g2924
sI850
g2915
ssI878
(dp5919
I857
g2925
ssI879
(dp5920
I857
g2926
ssI880
(dp5921
I857
g2927
ssI881
(dp5922
I857
g2928
ssI882
(dp5923
I857
g2929
ssI891
(dp5924
I832
g2857
ssI892
(dp5925
I832
g2858
ssI893
(dp5926
I832
g2859
ssI894
(dp5927
I832
g2860
ssI895
(dp5928
I832
g2861
ssI896
(dp5929
I832
g2856
sI845
g2894
ssI897
(dp5930
I845
g2895
ssI898
(dp5931
I845
g2896
ssI899
(dp5932
I845
g2897
ssI900
(dp5933
I845
g2898
ssI901
(dp5934
I868
g2951
sI845
g2899
ssI902
(dp5935
I868
g2952
ssI903
(dp5936
I868
g2953
ssI904
(dp5937
I868
g2954
ssI905
(dp5938
I868
g2955
ssI906
(dp5939
I868
g2956
sI837
g2870
ssI907
(dp5940
I837
g2871
ssI908
(dp5941
I837
g2872
ssI909
(dp5942
I837
g2873
ssI910
(dp5943
I837
g2874
ssI911
(dp5944
I858
g2931
sI837
g2875
ssI912
(dp5945
I858
g2932
ssI913
(dp5946
I858
g2933
ssI914
(dp5947
I858
g2934
ssI915
(dp5948
I858
g2935
ssI916
(dp5949
I858
g2936
sI823
g2830
ssI917
(dp5950
I823
g2831
ssI918
(dp5951
I823
g2832
ssI919
(dp5952
I823
g2833
ssI920
(dp5953
I823
g2834
ssI921
(dp5954
I830
g2846
sI823
g2835
ssI922
(dp5955
I830
g2847
ssI923
(dp5956
I830
g2848
ssI924
(dp5957
I830
g2849
ssI925
(dp5958
I830
g2850
ssI926
(dp5959
I846
g2905
sI830
g2851
ssI927
(dp5960
I846
g2906
ssI928
(dp5961
I846
g2901
ssI929
(dp5962
I846
g2902
ssI930
(dp5963
I846
g2903
ssI931
(dp5964
I846
g2904
ssI937
(dp5965
I862
g2938
ssI938
(dp5966
I867
g2949
sI862
g2939
ssI939
(dp5967
I803
g2797
sI862
g2940
ssI940
(dp5968
I880
g2990
sI862
g2941
ssI941
(dp5969
I882
g2994
sI862
g2942
ssI944
(dp5970
I918
g3073
ssI945
(dp5971
I918
g3074
ssI946
(dp5972
I918
g3075
ssI947
(dp5973
I906
g3036
sI918
g3076
ssI948
(dp5974
I906
g3037
ssI949
(dp5975
I906
g3038
ssI950
(dp5976
I906
g3039
ssI953
(dp5977
I895
g3008
ssI954
(dp5978
I895
g3009
sI927
g3097
ssI955
(dp5979
I927
g3098
ssI958
(dp5980
I923
g3086
ssI959
(dp5981
I929
g3104
sI923
g3087
ssI962
(dp5982
I873
g2965
ssI963
(dp5983
I873
g2966
sI877
g2983
ssI966
(dp5984
I799
g2791
ssI967
(dp5985
I940
g3121
sI799
g2792
ssI970
(dp5986
I958
g3157
ssI971
(dp5987
I893
g3003
sI958
g3158
ssI975
(dp5988
I907
g3041
sI917
g3071
ssI976
(dp5989
I917
g3070
sI909
g3045
ssI983
(dp5990
I950
g3142
ssI984
(dp5991
I881
g2992
sI950
g3143
ssI985
(dp5992
I970
g3177
sI950
g3144
ssI986
(dp5993
I896
g3011
sI950
g3145
ssI987
(dp5994
I950
g3146
sI863
g2944
ssI988
(dp5995
I904
g3032
sI950
g3147
ssI992
(dp5996
I891
g2996
sI910
g3047
sI963
g3166
ssI993
(dp5997
I891
g2997
sI910
g3048
sI963
g3167
ssI994
(dp5998
I891
g2998
sI910
g3049
sI963
g3168
ssI998
(dp5999
I928
g3101
sI856
g2921
sI930
g3107
ssI999
(dp6000
I928
g3102
sI856
g2922
sI930
g3108
ssI1000
(dp6001
I928
g3100
sI856
g2920
sI930
g3106
ssI1003
(dp6002
I983
g3187
ssI1004
(dp6003
I976
g3185
sI983
g3188
ssI1010
(dp6004
I925
g3092
sI959
g3160
ssI1011
(dp6005
I872
g2962
sI959
g3161
ssI1012
(dp6006
I872
g2963
sI875
g2977
ssI1013
(dp6007
I897
g3013
sI875
g2978
ssI1014
(dp6008
I897
g3014
sI925
g3093
ssI1016
(dp6009
sI1017
(dp6010
sI1019
(dp6011
I944
g3125
sI826
g2843
ssI1020
(dp6012
I1016
g3239
sI826
g2844
ssI1021
(dp6013
I1016
g3240
sI1017
g3242
ssI1022
(dp6014
I944
g3126
sI1017
g3243
ssI1025
(dp6015
I776
g2747
sI842
g2891
ssI1026
(dp6016
I776
g2748
sI842
g2892
ssI1027
(dp6017
sI1030
(dp6018
I841
g2888
sI1027
g3271
sI903
g3029
ssI1031
(dp6019
I841
g2889
sI1027
g3272
sI903
g3030
ssI1032
(dp6020
I841
g2887
sI1027
g3270
sI903
g3028
ssI1035
(dp6021
I948
g3136
ssI1036
(dp6022
I948
g3137
sI919
g3078
ssI1039
(dp6023
I878
g2986
ssI1040
(dp6024
I938
g3116
sI878
g2985
ssI1041
(dp6025
I938
g3117
ssI1044
(dp6026
I1030
g3274
ssI1045
(dp6027
I962
g3163
sI1030
g3275
ssI1046
(dp6028
I962
g3164
ssI1064
(dp6029
I937
g3113
sI954
g3152
sI899
g3018
sI804
g2799
sI922
g3084
ssI1065
(dp6030
I984
g3190
sI937
g3114
sI939
g3119
sI1012
g3230
sI1004
g3222
ssI1066
(dp6031
I905
g3034
sI1011
g3228
sI1004
g3223
sI947
g3134
sI999
g3215
ssI1067
(dp6032
I1032
g3280
sI941
g3123
sI821
g2824
sI1045
g3300
sI999
g3216
ssI1070
(dp6033
I1025
g3264
sI1019
g3245
ssI1071
(dp6034
I1025
g3265
sI1019
g3246
ssI1074
(dp6035
I994
g3209
ssI1075
(dp6036
I994
g3210
sI916
g3068
ssI1078
(dp6037
I945
g3128
sI1041
g3295
ssI1079
(dp6038
I945
g3129
sI1041
g3296
ssI1082
(dp6039
I966
g3170
ssI1083
(dp6040
I966
g3171
ssI1084
(dp6041
I869
g2958
sI966
g3172
ssI1085
(dp6042
I869
g2959
ssI1086
(dp6043
I869
g2960
ssI1087
(dp6044
sI1094
(dp6045
I924
g3089
sI1044
g3298
sI1014
g3237
sI1087
g3354
ssI1095
(dp6046
I921
g3082
sI898
g3016
sI924
g3090
sI1046
g3302
ssI1100
(dp6047
I1094
g3356
sI879
g2988
ssI1101
(dp6048
I1020
g3248
sI1094
g3357
ssI1102
(dp6049
I914
g3064
sI1020
g3249
ssI1105
(dp6050
I1101
g3365
ssI1106
(dp6051
I1101
g3366
sI1078
g3335
ssI1109
(dp6052
I953
g3149
ssI1110
(dp6053
I1000
g3218
sI953
g3150
ssI1122
(dp6054
I920
g3080
sI864
g2946
sI1106
g3373
ssI1123
(dp6055
I864
g2947
sI1010
g3225
sI1003
g3220
ssI1124
(dp6056
I1010
g3226
sI955
g3154
sI901
g3023
ssI1125
(dp6057
I955
g3155
sI1109
g3375
sI894
g3005
ssI1126
(dp6058
I913
g3062
sI894
g3006
sI985
g3192
ssI1129
(dp6059
I892
g3000
sI975
g3182
ssI1130
(dp6060
I892
g3001
sI975
g3183
ssI1133
(dp6061
sI1137
(dp6062
I1064
g3304
sI1039
g3289
ssI1138
(dp6063
I1133
g3408
sI1039
g3290
ssI1139
(dp6064
I1133
g3409
sI902
g3025
ssI1140
(dp6065
I1083
g3342
sI902
g3026
ssI1141
(dp6066
I1066
g3315
sI1083
g3343
ssI1144
(dp6067
I1031
g3277
sI1079
g3337
ssI1145
(dp6068
I1031
g3278
sI1079
g3338
ssI1150
(dp6069
I931
g3110
ssI1151
(dp6070
I971
g3180
sI931
g3111
ssI1152
(dp6071
I971
g3179
sI900
g3020
ssI1153
(dp6072
I900
g3021
sI838
g2877
ssI1159
(dp6073
sI1160
(dp6074
I1129
g3397
ssI1161
(dp6075
I912
g3060
sI1129
g3398
ssI1162
(dp6076
I1129
g3399
sI1151
g3440
ssI1163
(dp6077
I1129
g3400
sI1082
g3340
ssI1164
(dp6078
I1129
g3401
sI1102
g3368
ssI1165
(dp6079
I1129
g3402
sI1159
g3447
ssI1169
(dp6080
I1100
g3361
ssI1170
(dp6081
I1137
g3411
sI1100
g3362
ssI1171
(dp6082
I1161
g3452
sI1100
g3363
ssI1175
(dp6083
I988
g3202
ssI1176
(dp6084
I988
g3201
sI1084
g3345
ssI1177
(dp6085
I1074
g3325
sI1084
g3346
ssI1178
(dp6086
I1074
g3326
ssI1181
(dp6087
I1126
g3394
sI998
g3212
ssI1182
(dp6088
I1126
g3395
sI998
g3213
ssI1185
(dp6089
I1026
g3267
sI1181
g3491
ssI1186
(dp6090
I1026
g3268
sI1181
g3492
ssI1189
(dp6091
I1176
g3483
ssI1190
(dp6092
I1176
g3484
ssI1191
(dp6093
I1176
g3485
ssI1192
(dp6094
I1176
g3482
sI1186
g3507
ssI1193
(dp6095
I1186
g3508
ssI1194
(dp6096
I1186
g3509
ssI1195
(dp6097
I1186
g3510
ssI1200
(dp6098
I840
g2882
sI1162
g3454
sI1140
g3418
sI1165
g3464
ssI1201
(dp6099
I840
g2883
sI1162
g3455
sI1140
g3419
sI1165
g3465
ssI1202
(dp6100
I840
g2884
sI1162
g3456
sI1140
g3420
sI1165
g3466
ssI1203
(dp6101
I840
g2885
sI1162
g3457
sI1140
g3421
sI1165
g3467
ssI1211
(dp6102
I986
g3194
sI915
g3066
ssI1212
(dp6103
I986
g3195
sI1195
g3535
ssI1213
(dp6104
I1195
g3536
sI1150
g3437
ssI1214
(dp6105
I993
g3206
sI1150
g3438
ssI1215
(dp6106
I1200
g3539
sI993
g3207
ssI1216
(dp6107
I1200
g3538
sI1178
g3489
ssI1221
(dp6108
I1164
g3461
ssI1222
(dp6109
I1164
g3462
sI1189
g3512
ssI1223
(dp6110
I681
g2605
sI1189
g3513
ssI1224
(dp6111
I681
g2604
sI1124
g3386
ssI1233
(dp6112
I1185
g3498
sI1224
g3588
sI1065
g3306
sI1194
g3526
sI911
g3051
sI1022
g3255
sI874
g2968
sI1214
g3562
ssI1234
(dp6113
I1185
g3499
sI1224
g3589
sI1065
g3307
sI1194
g3527
sI911
g3052
sI1022
g3256
sI874
g2969
sI1214
g3563
ssI1235
(dp6114
I1185
g3500
sI1224
g3590
sI1065
g3308
sI1194
g3528
sI911
g3053
sI1022
g3257
sI874
g2970
sI1214
g3564
ssI1236
(dp6115
I1185
g3501
sI1224
g3591
sI1065
g3309
sI1194
g3529
sI911
g3054
sI1022
g3258
sI874
g2971
sI1214
g3565
ssI1237
(dp6116
I1185
g3502
sI1224
g3592
sI1065
g3310
sI1194
g3530
sI911
g3055
sI1022
g3259
sI874
g2972
sI1214
g3566
ssI1238
(dp6117
I1185
g3503
sI1224
g3593
sI1065
g3311
sI1194
g3531
sI911
g3056
sI1022
g3260
sI874
g2973
sI1214
g3567
ssI1239
(dp6118
I1185
g3504
sI1224
g3594
sI1065
g3312
sI1194
g3532
sI911
g3057
sI1022
g3261
sI874
g2974
sI1214
g3568
ssI1240
(dp6119
I1185
g3505
sI1224
g3595
sI1065
g3313
sI1194
g3533
sI911
g3058
sI1022
g3262
sI874
g2975
sI1214
g3569
ssI1244
(dp6120
I1144
g3429
ssI1245
(dp6121
I1144
g3430
ssI1246
(dp6122
I1144
g3431
ssI1247
(dp6123
I1144
g3432
ssI1248
(dp6124
I1144
g3427
ssI1249
(dp6125
I1144
g3428
sI1075
g3328
ssI1250
(dp6126
I1075
g3329
ssI1251
(dp6127
I1075
g3330
ssI1252
(dp6128
I1075
g3331
ssI1253
(dp6129
I1075
g3332
ssI1254
(dp6130
I1075
g3333
sI1211
g3549
ssI1255
(dp6131
I1211
g3550
ssI1256
(dp6132
I1211
g3551
ssI1257
(dp6133
I1211
g3552
ssI1258
(dp6134
I1211
g3553
ssI1259
(dp6135
I1211
g3554
ssI1263
(dp6136
I1130
g3406
sI1021
g3253
sI1215
g3573
ssI1264
(dp6137
I1130
g3404
sI1021
g3251
sI1215
g3571
ssI1265
(dp6138
I1130
g3405
sI1021
g3252
sI1215
g3572
ssI1267
(dp6139
sI1268
(dp6140
sI1270
(dp6141
sI1271
(dp6142
I1267
g3676
sI1268
g3679
sI1190
g3515
ssI1272
(dp6143
I1268
g3678
sI1270
g3681
sI1263
g3668
ssI1276
(dp6144
I1233
g3597
sI1071
g3322
ssI1277
(dp6145
I1153
g3445
sI1071
g3323
ssI1281
(dp6146
I1160
g3449
sI1110
g3377
ssI1282
(dp6147
I1160
g3450
sI1169
g3469
ssI1283
(dp6148
I1169
g3470
sI1110
g3378
ssI1285
(dp6149
sI1287
(dp6150
I1253
g3649
sI1246
g3627
sI1285
g3706
ssI1288
(dp6151
I1253
g3647
sI1246
g3625
sI1285
g3704
ssI1289
(dp6152
I1253
g3648
sI1246
g3626
sI1285
g3705
ssI1292
(dp6153
I1264
g3670
sI1170
g3472
ssI1293
(dp6154
I1264
g3671
sI1170
g3473
ssI1295
(dp6155
sI1297
(dp6156
I1236
g3606
sI1295
g3728
ssI1298
(dp6157
I1095
g3359
sI1295
g3729
ssI1299
(dp6158
sI1304
(dp6159
I1040
g3292
sI1240
g3616
sI1299
g3736
ssI1305
(dp6160
I1040
g3293
sI1177
g3487
sI1257
g3658
ssI1308
(dp6161
I1152
g3442
ssI1309
(dp6162
I1152
g3443
sI1298
g3734
ssI1312
(dp6163
I1304
g3738
ssI1313
(dp6164
I1304
g3739
sI967
g3174
ssI1314
(dp6165
I967
g3175
ssI1317
(dp6166
I1251
g3642
ssI1318
(dp6167
I1251
g3643
sI1292
g3720
ssI1328
(dp6168
I1248
g3634
sI908
g3043
sI1238
g3610
ssI1329
(dp6169
I1192
g3521
sI876
g2980
sI1238
g3611
ssI1330
(dp6170
I876
g2981
sI1139
g3415
sI1036
g3287
ssI1331
(dp6171
I1138
g3413
sI1139
g3416
sI1175
g3480
ssI1335
(dp6172
I1216
g3575
sI949
g3140
ssI1336
(dp6173
I949
g3139
sI1317
g3760
ssI1339
(dp6174
I1258
g3660
ssI1340
(dp6175
I1258
g3661
ssI1341
(dp6176
I1258
g3662
ssI1342
(dp6177
I1258
g3663
sI1234
g3601
ssI1343
(dp6178
I1234
g3602
ssI1344
(dp6179
I1234
g3599
ssI1345
(dp6180
I1234
g3600
ssI1350
(dp6181
I1247
g3631
ssI1351
(dp6182
I1247
g3632
ssI1352
(dp6183
I1247
g3629
ssI1353
(dp6184
I1288
g3710
sI1247
g3630
ssI1354
(dp6185
I1288
g3711
ssI1355
(dp6186
I1288
g3712
ssI1356
(dp6187
I1288
g3713
sI1035
g3282
ssI1357
(dp6188
I1035
g3283
ssI1358
(dp6189
I1035
g3284
ssI1359
(dp6190
I1035
g3285
sI1244
g3621
ssI1360
(dp6191
I1244
g3618
ssI1361
(dp6192
I1244
g3619
ssI1362
(dp6193
I1244
g3620
ssI1365
(dp6194
sI1367
(dp6195
I1125
g3392
ssI1368
(dp6196
I1125
g3388
ssI1369
(dp6197
I1125
g3389
ssI1370
(dp6198
I1125
g3390
ssI1371
(dp6199
I1125
g3391
sI1222
g3580
ssI1372
(dp6200
I1222
g3581
ssI1373
(dp6201
I1222
g3582
ssI1374
(dp6202
I1222
g3583
ssI1375
(dp6203
I1365
g3842
sI1222
g3584
ssI1376
(dp6204
I1365
g3838
ssI1377
(dp6205
I1365
g3839
ssI1378
(dp6206
I1365
g3840
ssI1379
(dp6207
I1293
g3722
sI1365
g3841
ssI1380
(dp6208
I1293
g3723
ssI1381
(dp6209
I1293
g3724
ssI1382
(dp6210
I1293
g3725
ssI1383
(dp6211
I1293
g3726
ssI1386
(dp6212
I1356
g3820
sI1350
g3799
ssI1387
(dp6213
I1356
g3821
sI1350
g3800
ssI1390
(dp6214
I1265
g3673
ssI1391
(dp6215
I1265
g3674
sI1283
g3702
ssI1394
(dp6216
I1086
g3350
ssI1395
(dp6217
I1086
g3351
ssI1396
(dp6218
I1086
g3352
sI1191
g3517
ssI1397
(dp6219
I1191
g3518
ssI1398
(dp6220
I1191
g3519
ssI1402
(dp6221
I946
g3131
ssI1403
(dp6222
I1360
g3831
sI946
g3132
ssI1404
(dp6223
I1360
g3832
sI1123
g3383
ssI1405
(dp6224
I1123
g3384
ssI1410
(dp6225
I1203
g3546
sI1380
g3883
ssI1411
(dp6226
I1355
g3817
sI1380
g3884
ssI1412
(dp6227
I1355
g3818
sI1070
g3319
ssI1413
(dp6228
I1203
g3547
sI1070
g3320
ssI1416
(dp6229
I1339
g3780
sI1318
g3762
ssI1417
(dp6230
I1339
g3781
sI1318
g3763
ssI1419
(dp6231
sI1421
(dp6232
I1145
g3434
ssI1422
(dp6233
I1145
g3435
sI1419
g3944
ssI1423
(dp6234
I1419
g3945
sI1375
g3872
ssI1424
(dp6235
I1375
g3871
ssI1427
(dp6236
sI1429
(dp6237
I1416
g3938
sI1387
g3895
sI1427
g3958
sI1013
g3233
ssI1430
(dp6238
I1416
g3939
sI1387
g3896
sI1427
g3959
sI1013
g3234
ssI1431
(dp6239
I1416
g3940
sI1387
g3897
sI1427
g3960
sI1013
g3235
ssI1432
(dp6240
I1416
g3937
sI1387
g3894
sI1427
g3957
sI1013
g3232
ssI1442
(dp6241
I1417
g3942
sI1235
g3604
sI1430
g3970
sI1422
g3951
sI1357
g3823
ssI1443
(dp6242
I1376
g3874
sI1430
g3971
sI1213
g3560
sI926
g3095
sI1373
g3866
ssI1445
(dp6243
sI1447
(dp6244
I1405
g3925
ssI1448
(dp6245
I1405
g3924
sI1445
g3982
ssI1449
(dp6246
I1445
g3983
sI1431
g3973
ssI1452
(dp6247
I1369
g3849
sI1308
g3744
ssI1453
(dp6248
I1369
g3850
sI1308
g3745
ssI1457
(dp6249
I1330
g3769
ssI1458
(dp6250
I1402
g3918
sI1330
g3770
ssI1459
(dp6251
I1328
g3765
sI1330
g3771
ssI1460
(dp6252
sI1464
(dp6253
I1460
g4009
ssI1465
(dp6254
I1424
g3955
sI1460
g4010
ssI1466
(dp6255
I1460
g4011
sI1423
g3953
ssI1467
(dp6256
I1331
g3773
sI1460
g4012
ssI1470
(dp6257
I1336
g3777
ssI1471
(dp6258
I1336
g3778
sI1386
g3892
ssI1475
(dp6259
I1395
g3906
ssI1476
(dp6260
I1395
g3907
ssI1477
(dp6261
I1371
g3857
sI1395
g3908
ssI1478
(dp6262
I1371
g3858
ssI1479
(dp6263
I1371
g3859
sI1141
g3425
ssI1480
(dp6264
I1141
g3423
ssI1481
(dp6265
I1141
g3424
ssI1484
(dp6266
I1353
g3807
ssI1485
(dp6267
I1353
g3808
ssI1486
(dp6268
I1353
g3809
ssI1487
(dp6269
I1353
g3810
sI1370
g3855
ssI1488
(dp6270
I1370
g3852
ssI1489
(dp6271
I1370
g3853
ssI1490
(dp6272
I1370
g3854
ssI1493
(dp6273
I1396
g3910
ssI1494
(dp6274
I1396
g3911
sI1237
g3608
ssI1497
(dp6275
I1481
g4049
sI1453
g3998
ssI1498
(dp6276
I1481
g4050
sI1453
g3999
ssI1501
(dp6277
I1352
g3804
sI1447
g3985
ssI1502
(dp6278
I1352
g3805
sI1447
g3986
ssI1506
(dp6279
I1358
g3825
ssI1507
(dp6280
I1358
g3826
sI1351
g3802
ssI1508
(dp6281
I1358
g3827
sI1343
g3791
ssI1518
(dp6282
I1193
g3523
sI1362
g3836
sI1252
g3645
sI1502
g4085
sI1359
g3829
ssI1519
(dp6283
I1287
g3708
sI1193
g3524
sI1163
g3459
sI1245
g3623
sI1397
g3913
ssI1522
(dp6284
sI1523
(dp6285
I1410
g3927
sI1342
g3788
ssI1524
(dp6286
I1522
g4100
sI1342
g3789
ssI1527
(dp6287
sI1529
(dp6288
I1239
g3613
sI1335
g3775
ssI1530
(dp6289
I1239
g3614
sI1527
g4108
ssI1531
(dp6290
I1223
g3586
sI1527
g4109
ssI1538
(dp6291
I1488
g4062
sI1498
g4079
ssI1539
(dp6292
I1498
g4080
sI1374
g3868
ssI1540
(dp6293
I1374
g3869
sI1390
g3899
ssI1541
(dp6294
I1508
g4092
sI1390
g3900
ssI1542
(dp6295
I1497
g4077
sI1508
g4093
ssI1545
(dp6296
I1182
g3494
ssI1546
(dp6297
I1182
g3495
ssI1547
(dp6298
I1523
g4102
sI1182
g3496
ssI1548
(dp6299
I1523
g4103
ssI1549
(dp6300
I1523
g4104
ssI1553
(dp6301
I1271
g3683
sI1255
g3654
ssI1554
(dp6302
I1403
g3920
sI1271
g3684
ssI1557
(dp6303
I1297
g3731
sI1501
g4082
ssI1558
(dp6304
I1297
g3732
sI1501
g4083
ssI1561
(dp6305
I1259
g3665
ssI1562
(dp6306
I1259
g3666
sI1085
g3348
ssI1566
(dp6307
I1529
g4111
ssI1567
(dp6308
I1529
g4112
sI1382
g3889
ssI1568
(dp6309
I1459
g4007
sI1382
g3888
ssI1571
(dp6310
I1122
g3380
sI1276
g3689
ssI1572
(dp6311
I1122
g3381
sI1276
g3690
ssI1576
(dp6312
I1490
g4067
ssI1577
(dp6313
I1490
g4068
sI1485
g4054
ssI1578
(dp6314
I1490
g4069
sI1467
g4021
ssI1583
(dp6315
I1538
g4123
sI1171
g3478
sI1372
g3864
sI1566
g4172
ssI1584
(dp6316
I1538
g4120
sI1171
g3475
sI1372
g3861
sI1566
g4169
ssI1585
(dp6317
I1538
g4121
sI1171
g3476
sI1372
g3862
sI1566
g4170
ssI1586
(dp6318
I1538
g4122
sI1171
g3477
sI1372
g3863
sI1566
g4171
ssI1589
(dp6319
I1458
g4004
ssI1590
(dp6320
I1458
g4005
sI1379
g3881
ssI1593
(dp6321
I1449
g3990
sI1553
g4144
ssI1594
(dp6322
I1449
g3991
sI1553
g4145
ssI1598
(dp6323
I822
g2827
ssI1599
(dp6324
I822
g2828
ssI1600
(dp6325
I1314
g3756
sI822
g2826
ssI1601
(dp6326
I1314
g3757
ssI1602
(dp6327
I1314
g3758
sI1421
g3947
ssI1603
(dp6328
I1421
g3948
ssI1604
(dp6329
I1421
g3949
ssI1611
(dp6330
I1479
g4043
ssI1612
(dp6331
I1313
g3753
sI1479
g4044
ssI1613
(dp6332
I1313
g3754
sI1594
g4227
ssI1614
(dp6333
I1594
g4228
sI1547
g4137
ssI1615
(dp6334
I1554
g4148
sI1547
g4138
ssI1616
(dp6335
I1602
g4241
sI1554
g4147
ssI1617
(dp6336
I1602
g4242
ssI1621
(dp6337
I1250
g3638
ssI1622
(dp6338
I1250
g3639
ssI1623
(dp6339
I1250
g3640
ssI1624
(dp6340
I1250
g3637
sI1604
g4246
ssI1625
(dp6341
I1604
g4247
ssI1626
(dp6342
I1604
g4248
ssI1627
(dp6343
I1604
g4249
sI1277
g3692
ssI1628
(dp6344
I1277
g3693
ssI1629
(dp6345
I1277
g3694
ssI1630
(dp6346
I1277
g3695
ssI1634
(dp6347
I1105
g3370
ssI1635
(dp6348
I1105
g3371
sI1493
g4071
ssI1636
(dp6349
I1571
g4179
sI1493
g4072
ssI1639
(dp6350
I1530
g4115
sI1548
g4141
ssI1640
(dp6351
I1530
g4114
sI1548
g4140
ssI1643
(dp6352
I1486
g4056
ssI1644
(dp6353
I1484
g4052
sI1486
g4057
ssI1650
(dp6354
I1378
g3879
sI1202
g3543
sI1381
g3886
ssI1651
(dp6355
I1600
g4236
sI1202
g3544
sI1623
g4274
ssI1654
(dp6356
sI1656
(dp6357
I1593
g4224
ssI1657
(dp6358
I1312
g3750
sI1593
g4225
ssI1658
(dp6359
I1312
g3751
sI1654
g4321
ssI1659
(dp6360
I1329
g3767
sI1654
g4322
ssI1664
(dp6361
I1344
g3793
sI1658
g4331
ssI1665
(dp6362
I1344
g3794
sI1628
g4287
ssI1666
(dp6363
I1628
g4288
sI1558
g4153
ssI1667
(dp6364
I1658
g4332
sI1558
g4154
ssI1670
(dp6365
I1345
g3796
ssI1671
(dp6366
I1345
g3797
sI1506
g4088
ssI1672
(dp6367
I1506
g4087
ssI1678
(dp6368
sI1684
(dp6369
I1624
g4276
sI1361
g3834
sI1394
g3903
ssI1685
(dp6370
I1664
g4337
sI1394
g3904
sI1542
g4131
ssI1686
(dp6371
I1664
g4338
sI1678
g4355
sI1487
g4059
ssI1687
(dp6372
I1635
g4295
sI1477
g4039
sI1487
g4060
ssI1688
(dp6373
I992
g3204
sI1448
g3988
sI1477
g4038
ssI1692
(dp6374
I1212
g3556
ssI1693
(dp6375
I1540
g4126
sI1212
g3557
ssI1694
(dp6376
I1643
g4311
sI1212
g3558
ssI1697
(dp6377
I1494
g4074
ssI1698
(dp6378
I1464
g4014
sI1494
g4075
ssI1702
(dp6379
I1443
g3980
sI1614
g4255
ssI1703
(dp6380
I1694
g4375
sI1614
g4256
ssI1704
(dp6381
I1443
g3979
sI1694
g4374
ssI1707
(dp6382
I1465
g4016
sI1470
g4023
ssI1708
(dp6383
I1465
g4017
sI1470
g4024
ssI1711
(dp6384
sI1712
(dp6385
sI1715
(dp6386
I1598
g4230
ssI1716
(dp6387
I1688
g4366
sI1598
g4231
ssI1717
(dp6388
I1688
g4367
sI1711
g4394
ssI1718
(dp6389
I1712
g4397
sI1711
g4395
ssI1719
(dp6390
I1712
g4398
sI1411
g3930
ssI1720
(dp6391
I1650
g4316
sI1411
g3929
ssI1723
(dp6392
I1578
g4194
sI1651
g4318
ssI1724
(dp6393
I1578
g4195
sI1651
g4319
ssI1729
(dp6394
I1413
g3934
sI1719
g4410
ssI1730
(dp6395
I1704
g4388
sI1413
g3935
ssI1731
(dp6396
I1704
g4389
sI1693
g4372
ssI1734
(dp6397
I1657
g4328
ssI1735
(dp6398
I1657
g4329
ssI1736
(dp6399
I1657
g4327
sI987
g3197
ssI1737
(dp6400
I987
g3198
ssI1738
(dp6401
I987
g3199
ssI1740
(dp6402
sI1743
(dp6403
I1729
g4420
ssI1744
(dp6404
I1729
g4419
sI1740
g4436
ssI1745
(dp6405
I1740
g4437
sI1541
g4128
ssI1746
(dp6406
I1707
g4391
sI1541
g4129
ssI1749
(dp6407
I1636
g4297
ssI1750
(dp6408
I1480
g4046
sI1636
g4298
ssI1751
(dp6409
I1480
g4047
ssI1754
(dp6410
I1644
g4313
sI1692
g4369
ssI1755
(dp6411
I1644
g4314
sI1692
g4370
ssI1758
(dp6412
I1583
g4197
ssI1759
(dp6413
I1720
g4413
sI1583
g4198
ssI1760
(dp6414
I1720
g4412
ssI1763
(dp6415
I1531
g4117
sI1254
g3651
ssI1764
(dp6416
I1531
g4118
sI1254
g3652
ssI1767
(dp6417
I1615
g4259
ssI1768
(dp6418
I1524
g4106
sI1615
g4258
ssI1771
(dp6419
I1621
g4270
sI1309
g3747
ssI1772
(dp6420
I1621
g4271
sI1309
g3748
ssI1773
(dp6421
sI1777
(dp6422
I1773
g4494
ssI1778
(dp6423
I1773
g4495
sI1758
g4459
ssI1779
(dp6424
I1717
g4405
sI1758
g4460
ssI1780
(dp6425
I1717
g4406
sI1518
g4095
ssI1784
(dp6426
I1730
g4422
ssI1785
(dp6427
I1730
g4423
sI1567
g4174
ssI1786
(dp6428
I1377
g3876
sI1567
g4175
ssI1787
(dp6429
I1377
g3877
ssI1788
(dp6430
sI1791
(dp6431
I1788
g4535
ssI1792
(dp6432
I1457
g4001
sI1788
g4534
ssI1793
(dp6433
I1457
g4002
sI1629
g4290
ssI1811
(dp6434
I1768
g4482
sI1771
g4484
sI1404
g3922
sI1667
g4343
sI1703
g4386
ssI1812
(dp6435
I1760
g4465
sI1256
g3656
sI1771
g4485
sI1412
g3932
sI1478
g4041
ssI1813
(dp6436
I1760
g4466
sI1305
g3741
sI1666
g4341
sI1603
g4244
sI1475
g4032
ssI1814
(dp6437
I1793
g4541
sI1634
g4293
sI1507
g4090
sI1305
g3742
sI1777
g4497
ssI1818
(dp6438
I1601
g4238
sI1743
g4439
ssI1819
(dp6439
I1601
g4239
sI1812
g4544
ssI1822
(dp6440
I1779
g4503
ssI1823
(dp6441
I1779
g4504
ssI1824
(dp6442
I1779
g4501
ssI1825
(dp6443
I1562
g4164
sI1779
g4502
ssI1826
(dp6444
I1562
g4165
ssI1827
(dp6445
I1562
g4166
ssI1828
(dp6446
I1562
g4167
ssI1831
(dp6447
I1672
g4353
ssI1832
(dp6448
I1672
g4351
ssI1833
(dp6449
I1672
g4352
sI1626
g4280
ssI1834
(dp6450
I1626
g4281
ssI1835
(dp6451
I1626
g4282
ssI1839
(dp6452
sI1840
(dp6453
I1568
g4177
sI1716
g4402
ssI1841
(dp6454
I1716
g4403
sI1590
g4221
ssI1842
(dp6455
I1590
g4222
sI1839
g4580
ssI1845
(dp6456
I1639
g4300
ssI1846
(dp6457
I1466
g4019
sI1639
g4301
ssI1851
(dp6458
I1576
g4184
sI1577
g4189
sI1671
g4346
sI1289
g3715
ssI1852
(dp6459
I1576
g4185
sI1577
g4190
sI1671
g4347
sI1289
g3716
ssI1853
(dp6460
I1576
g4186
sI1577
g4191
sI1671
g4348
sI1289
g3717
ssI1854
(dp6461
I1576
g4187
sI1577
g4192
sI1671
g4349
sI1289
g3718
ssI1857
(dp6462
I1698
g4380
ssI1858
(dp6463
I1656
g4324
sI1698
g4381
ssI1859
(dp6464
I1656
g4325
ssI1862
(dp6465
I1826
g4563
sI1282
g3699
ssI1863
(dp6466
I1826
g4564
sI1282
g3700
ssI1866
(dp6467
I1828
g4568
sI1767
g4479
ssI1867
(dp6468
I1828
g4569
sI1767
g4480
ssI1870
(dp6469
I1746
g4444
ssI1871
(dp6470
I1746
g4445
sI1791
g4538
ssI1872
(dp6471
I1791
g4537
ssI1876
(dp6472
I1745
g4442
sI1221
g3577
ssI1877
(dp6473
I1281
g3697
sI1221
g3578
ssI1879
(dp6474
sI1885
(dp6475
I1616
g4265
sI1840
g4586
sI1429
g3966
sI1879
g4651
sI1784
g4513
sI1561
g4160
sI1852
g4610
ssI1886
(dp6476
I1616
g4266
sI1840
g4587
sI1429
g3967
sI1879
g4652
sI1784
g4514
sI1561
g4161
sI1852
g4611
ssI1887
(dp6477
I1616
g4267
sI1840
g4588
sI1429
g3968
sI1879
g4653
sI1784
g4515
sI1561
g4162
sI1852
g4612
ssI1888
(dp6478
I1616
g4261
sI1840
g4582
sI1429
g3962
sI1879
g4647
sI1784
g4509
sI1561
g4156
sI1852
g4606
ssI1889
(dp6479
I1616
g4262
sI1840
g4583
sI1429
g3963
sI1879
g4648
sI1784
g4510
sI1561
g4157
sI1852
g4607
ssI1890
(dp6480
I1616
g4263
sI1840
g4584
sI1429
g3964
sI1879
g4649
sI1784
g4511
sI1561
g4158
sI1852
g4608
ssI1891
(dp6481
I1616
g4264
sI1840
g4585
sI1429
g3965
sI1879
g4650
sI1784
g4512
sI1561
g4159
sI1852
g4609
ssI1895
(dp6482
I1835
g4578
sI1735
g4427
ssI1896
(dp6483
I1625
g4278
sI1835
g4577
ssI1899
(dp6484
I1764
g4476
ssI1900
(dp6485
I1764
g4477
sI1750
g4450
ssI1902
(dp6486
sI1903
(dp6487
sI1905
(dp6488
I1354
g3812
ssI1906
(dp6489
I1354
g3813
sI1902
g4693
ssI1907
(dp6490
I1354
g3814
sI1903
g4695
ssI1908
(dp6491
I1354
g3815
sI1611
g4251
ssI1911
(dp6492
I1627
g4285
ssI1912
(dp6493
I1627
g4284
sI1862
g4621
ssI1914
(dp6494
sI1920
(dp6495
I1340
g3783
sI1863
g4623
ssI1921
(dp6496
I1914
g4718
sI1863
g4624
ssI1922
(dp6497
I1914
g4719
sI1780
g4506
ssI1923
(dp6498
I1780
g4507
sI1599
g4233
ssI1924
(dp6499
I1912
g4715
sI1599
g4234
ssI1925
(dp6500
I1912
g4716
sI1908
g4704
ssI1926
(dp6501
I1908
g4705
sI1340
g3784
ssI1929
(dp6502
I1489
g4064
sI1924
g4730
ssI1930
(dp6503
I1489
g4065
sI1924
g4731
ssI1931
(dp6504
sI1932
(dp6505
sI1935
(dp6506
I1931
g4746
ssI1936
(dp6507
I1931
g4743
sI1932
g4748
ssI1937
(dp6508
I1931
g4744
sI1718
g4408
ssI1938
(dp6509
I1842
g4595
sI1931
g4745
ssI1941
(dp6510
I1557
g4150
sI1702
g4383
ssI1942
(dp6511
I1557
g4151
sI1702
g4384
ssI1945
(dp6512
I1936
g4752
ssI1946
(dp6513
I1936
g4753
ssI1947
(dp6514
I1936
g4754
sI1851
g4602
ssI1948
(dp6515
I1851
g4603
ssI1949
(dp6516
I1851
g4604
ssI1952
(dp6517
I1877
g4641
ssI1953
(dp6518
I1877
g4642
ssI1954
(dp6519
I1877
g4643
ssI1955
(dp6520
I1877
g4644
ssI1956
(dp6521
I1922
g4724
sI1877
g4645
ssI1957
(dp6522
I1922
g4725
ssI1958
(dp6523
I1922
g4726
ssI1959
(dp6524
I1922
g4727
ssI1960
(dp6525
I1922
g4723
ssI1963
(dp6526
I1546
g4134
sI1659
g4334
ssI1964
(dp6527
I1546
g4135
sI1659
g4335
ssI1967
(dp6528
I1957
g4797
ssI1968
(dp6529
I1957
g4794
ssI1969
(dp6530
I1957
g4795
ssI1970
(dp6531
I1872
g4633
sI1957
g4796
ssI1971
(dp6532
I1872
g4634
ssI1972
(dp6533
I1872
g4635
ssI1973
(dp6534
I1872
g4636
ssI1978
(dp6535
I1896
g4678
sI1841
g4590
sI1786
g4526
sI1948
g4771
ssI1979
(dp6536
I1896
g4679
sI1841
g4591
sI1786
g4527
sI1948
g4772
ssI1980
(dp6537
I1896
g4680
sI1841
g4592
sI1786
g4528
sI1948
g4773
ssI1981
(dp6538
I1896
g4681
sI1841
g4593
sI1786
g4529
sI1948
g4774
ssI1985
(dp6539
I1945
g4763
sI1737
g4430
sI1959
g4802
ssI1986
(dp6540
I1945
g4764
sI1737
g4431
sI1959
g4803
ssI1987
(dp6541
I1945
g4765
sI1737
g4432
sI1959
g4804
ssI1996
(dp6542
I1785
g4517
ssI1997
(dp6543
I1785
g4518
sI1738
g4434
ssI1998
(dp6544
I1201
g3541
sI1785
g4519
ssI1999
(dp6545
I1785
g4520
sI1814
g4547
ssI2000
(dp6546
I1785
g4521
sI1834
g4575
ssI2001
(dp6547
I1785
g4522
sI1954
g4787
ssI2002
(dp6548
I1785
g4523
sI1935
g4750
ssI2003
(dp6549
I1929
g4740
sI1785
g4524
ssI2009
(dp6550
I1886
g4658
ssI2010
(dp6551
I1886
g4659
ssI2011
(dp6552
I1886
g4660
ssI2012
(dp6553
I1886
g4661
ssI2013
(dp6554
I1886
g4662
ssI2014
(dp6555
I1952
g4781
sI1886
g4663
ssI2015
(dp6556
I1952
g4782
ssI2016
(dp6557
I1952
g4777
ssI2017
(dp6558
I1952
g4778
ssI2018
(dp6559
I1952
g4779
ssI2019
(dp6560
I1952
g4780
sI1589
g4214
ssI2020
(dp6561
I1589
g4215
ssI2021
(dp6562
I1589
g4216
ssI2022
(dp6563
I1589
g4217
ssI2023
(dp6564
I1589
g4218
ssI2024
(dp6565
I1589
g4219
sI1999
g4846
ssI2025
(dp6566
I1999
g4847
ssI2026
(dp6567
I1999
g4848
ssI2027
(dp6568
I1999
g4849
ssI2028
(dp6569
I1999
g4850
ssI2029
(dp6570
I1900
g4686
sI1999
g4851
ssI2030
(dp6571
I1900
g4687
ssI2031
(dp6572
I1900
g4688
ssI2032
(dp6573
I1900
g4689
ssI2033
(dp6574
I1900
g4690
ssI2034
(dp6575
I1900
g4691
ssI2038
(dp6576
I1968
g4816
sI1825
g4560
ssI2039
(dp6577
I1825
g4561
sI1442
g3977
ssI2040
(dp6578
I1968
g4815
sI1442
g3976
ssI2043
(dp6579
I2025
g4900
sI1723
g4415
ssI2044
(dp6580
I2025
g4901
sI1723
g4416
ssI2047
(dp6581
I1272
g3687
ssI2048
(dp6582
I1272
g3686
sI1953
g4784
ssI2049
(dp6583
I1953
g4785
ssI2052
(dp6584
I1987
g4838
sI2013
g4868
ssI2053
(dp6585
I1987
g4839
sI2013
g4869
ssI2057
(dp6586
I1763
g4468
ssI2058
(dp6587
I1763
g4469
ssI2059
(dp6588
I1763
g4470
ssI2060
(dp6589
I1763
g4471
ssI2061
(dp6590
I1763
g4472
ssI2062
(dp6591
I1763
g4473
ssI2063
(dp6592
I1640
g4303
sI1763
g4474
ssI2064
(dp6593
I1640
g4304
ssI2065
(dp6594
I1640
g4305
ssI2066
(dp6595
I1640
g4306
ssI2067
(dp6596
I1640
g4307
ssI2068
(dp6597
I1640
g4308
ssI2069
(dp6598
I1640
g4309
sI1911
g4707
ssI2070
(dp6599
I1911
g4708
ssI2071
(dp6600
I1911
g4709
ssI2072
(dp6601
I1911
g4710
ssI2073
(dp6602
I1911
g4711
ssI2074
(dp6603
I1911
g4712
ssI2075
(dp6604
I1911
g4713
ssI2079
(dp6605
I1827
g4566
sI2052
g4939
ssI2080
(dp6606
I2010
g4859
sI2052
g4938
ssI2083
(dp6607
sI2084
(dp6608
sI2085
(dp6609
sI2088
(dp6610
I1586
g4206
ssI2089
(dp6611
I1586
g4207
sI1890
g4674
ssI2090
(dp6612
I1586
g4208
sI2083
g4992
ssI2091
(dp6613
I1586
g4209
sI2084
g4994
ssI2092
(dp6614
I1586
g4210
sI2085
g4996
ssI2093
(dp6615
I1586
g4211
sI2029
g4914
ssI2094
(dp6616
I1586
g4212
sI1870
g4630
ssI2097
(dp6617
I2072
g4979
ssI2098
(dp6618
I2072
g4980
sI1341
g3786
ssI2102
(dp6619
sI2103
(dp6620
I1754
g4456
sI2028
g4912
ssI2104
(dp6621
I1754
g4455
sI2018
g4879
ssI2105
(dp6622
I2018
g4880
sI2102
g5019
ssI2108
(dp6623
I1969
g4818
sI1858
g4617
ssI2109
(dp6624
I1969
g4819
sI1858
g4618
ssI2110
(dp6625
sI2114
(dp6626
I2110
g5036
ssI2115
(dp6627
I2110
g5037
sI2039
g4925
ssI2116
(dp6628
I1867
g4627
sI2039
g4926
ssI2117
(dp6629
I2033
g4920
sI1867
g4628
ssI2118
(dp6630
I2033
g4921
ssI2121
(dp6631
I1519
g4097
sI1759
g4462
ssI2122
(dp6632
I1519
g4098
sI1759
g4463
ssI2126
(dp6633
I1585
g4203
sI1846
g4599
sI1926
g4737
ssI2127
(dp6634
I1585
g4204
sI1846
g4600
sI1926
g4738
ssI2128
(dp6635
I1585
g4202
sI1846
g4598
sI1926
g4736
ssI2131
(dp6636
I1985
g4832
sI1876
g4638
ssI2132
(dp6637
I1985
g4833
sI1876
g4639
ssI2135
(dp6638
I1986
g4836
sI1947
g4769
ssI2136
(dp6639
I1986
g4835
sI1947
g4768
ssI2139
(dp6640
I1956
g4791
ssI2140
(dp6641
I2121
g5052
sI1956
g4792
ssI2144
(dp6642
I2080
g4989
sI1887
g4665
ssI2145
(dp6643
I2080
g4990
sI2012
g4865
ssI2146
(dp6644
I2012
g4866
sI1887
g4666
ssI2151
(dp6645
I2089
g5000
ssI2152
(dp6646
I2089
g4999
sI2062
g4957
ssI2153
(dp6647
I1996
g4841
sI2062
g4958
ssI2154
(dp6648
I1715
g4400
sI1996
g4842
ssI2156
(dp6649
sI2158
(dp6650
sI2159
(dp6651
I2023
g4893
ssI2160
(dp6652
I2156
g5088
sI2023
g4890
ssI2161
(dp6653
I2067
g4968
sI2023
g4891
ssI2162
(dp6654
I2158
g5090
sI2023
g4892
ssI2165
(dp6655
I2064
g4963
ssI2166
(dp6656
I2064
g4964
sI2139
g5072
ssI2169
(dp6657
I1885
g4655
sI2047
g4933
ssI2170
(dp6658
I1885
g4656
sI2047
g4934
ssI2173
(dp6659
I1942
g4760
ssI2174
(dp6660
I1925
g4733
sI1942
g4761
ssI2175
(dp6661
I1925
g4734
ssI2178
(dp6662
I2126
g5059
ssI2179
(dp6663
I2000
g4853
sI2126
g5060
ssI2182
(dp6664
I1751
g4452
sI2151
g5080
ssI2183
(dp6665
I1751
g4453
sI2151
g5081
ssI2186
(dp6666
I1905
g4697
ssI2187
(dp6667
I1905
g4698
sI2098
g5017
ssI2189
(dp6668
sI2191
(dp6669
I1697
g4378
sI2094
g5014
ssI2192
(dp6670
I1697
g4377
sI2189
g5126
ssI2193
(dp6671
I2189
g5127
sI2094
g5013
ssI2196
(dp6672
I1685
g4361
sI2070
g4973
ssI2197
(dp6673
I1685
g4362
sI2070
g4974
ssI2200
(dp6674
I1772
g4487
ssI2201
(dp6675
I1772
g4488
ssI2202
(dp6676
I1772
g4489
ssI2203
(dp6677
I1772
g4490
ssI2204
(dp6678
I1772
g4491
ssI2205
(dp6679
I2090
g5005
sI1772
g4492
ssI2206
(dp6680
I2090
g5006
ssI2207
(dp6681
I2090
g5007
ssI2208
(dp6682
I2090
g5002
ssI2209
(dp6683
I2090
g5003
ssI2210
(dp6684
I2090
g5004
ssI2213
(dp6685
I2146
g5077
ssI2214
(dp6686
I2016
g4875
sI2146
g5078
ssI2215
(dp6687
I2016
g4876
ssI2218
(dp6688
sI2219
(dp6689
I2218
g5161
sI2063
g4960
ssI2220
(dp6690
I2166
g5105
sI2063
g4961
ssI2221
(dp6691
I2218
g5162
sI2166
g5106
ssI2224
(dp6692
I2116
g5042
ssI2225
(dp6693
I2116
g5043
sI2031
g4917
ssI2226
(dp6694
sI2230
(dp6695
I2226
g5174
ssI2231
(dp6696
I2226
g5175
sI2108
g5033
ssI2232
(dp6697
I2108
g5032
sI1958
g4799
ssI2233
(dp6698
I2186
g5122
sI1958
g4800
ssI2234
(dp6699
I2186
g5123
ssI2237
(dp6700
I1960
g4806
ssI2238
(dp6701
I1960
g4807
ssI2239
(dp6702
I1960
g4808
sI2074
g4985
ssI2240
(dp6703
I2074
g4983
ssI2241
(dp6704
I2074
g4984
ssI2244
(dp6705
sI2247
(dp6706
I1778
g4499
sI2244
g5198
sI2053
g4941
ssI2248
(dp6707
I2244
g5197
sI2069
g4971
sI2127
g5062
ssI2251
(dp6708
I2159
g5092
ssI2252
(dp6709
I2159
g5093
ssI2253
(dp6710
I2159
g5094
ssI2254
(dp6711
I2024
g4897
sI2159
g5095
ssI2255
(dp6712
I2024
g4898
ssI2256
(dp6713
I2024
g4895
ssI2257
(dp6714
I2024
g4896
ssI2260
(dp6715
sI2261
(dp6716
I1368
g3845
ssI2262
(dp6717
I1368
g3846
ssI2263
(dp6718
I1368
g3847
sI2257
g5220
ssI2264
(dp6719
I2257
g5218
ssI2265
(dp6720
I2257
g5219
sI2260
g5222
ssI2266
(dp6721
I2260
g5223
ssI2267
(dp6722
I2260
g5224
ssI2273
(dp6723
I2239
g5189
ssI2274
(dp6724
I2118
g5050
sI2239
g5190
ssI2275
(dp6725
I1067
g3317
sI2239
g5191
ssI2276
(dp6726
I2092
g5010
sI2239
g5192
ssI2277
(dp6727
I2205
g5146
sI2239
g5193
ssI2280
(dp6728
I2266
g5232
sI2043
g4929
ssI2281
(dp6729
I2266
g5233
sI2043
g4930
ssI2282
(dp6730
sI2286
(dp6731
I2282
g5265
ssI2287
(dp6732
I2114
g5039
sI2282
g5266
ssI2288
(dp6733
I2282
g5263
sI2237
g5186
ssI2289
(dp6734
I2233
g5181
sI2282
g5264
ssI2292
(dp6735
sI2294
(dp6736
I2154
g5085
sI1749
g4448
ssI2295
(dp6737
I2154
g5086
sI2234
g5184
ssI2296
(dp6738
I2234
g5183
sI2292
g5276
ssI2297
(dp6739
I2292
g5277
sI1749
g4447
ssI2298
(dp6740
sI2302
(dp6741
sI2303
(dp6742
I2298
g5287
sI1970
g4822
sI1981
g4830
ssI2304
(dp6743
I1970
g4821
sI2302
g5289
sI2287
g5272
ssI2307
(dp6744
sI2308
(dp6745
I2169
g5108
sI1787
g4531
ssI2309
(dp6746
I2307
g5293
sI1787
g4532
ssI2312
(dp6747
I2294
g5279
ssI2313
(dp6748
I1832
g4572
sI2294
g5280
ssI2316
(dp6749
I2256
g5215
sI1907
g4701
ssI2317
(dp6750
I2256
g5216
sI1907
g4702
ssI2320
(dp6751
I1398
g3915
sI2015
g4872
ssI2321
(dp6752
I1398
g3916
sI2015
g4873
ssI2324
(dp6753
I2320
g5302
sI1899
g4683
ssI2325
(dp6754
I2320
g5303
sI1899
g4684
ssI2329
(dp6755
I2160
g5097
ssI2330
(dp6756
I2160
g5098
ssI2331
(dp6757
I2160
g5099
sI2104
g5025
ssI2332
(dp6758
I2104
g5026
ssI2333
(dp6759
I2104
g5027
sI2103
g5021
ssI2334
(dp6760
I2103
g5022
ssI2335
(dp6761
I2103
g5023
ssI2338
(dp6762
sI2339
(dp6763
I2286
g5268
ssI2340
(dp6764
I1941
g4758
sI2286
g5269
ssI2341
(dp6765
I2338
g5318
sI2286
g5270
ssI2344
(dp6766
I2122
g5054
ssI2345
(dp6767
I2122
g5055
ssI2346
(dp6768
I2122
g5056
ssI2347
(dp6769
I2122
g5057
sI2117
g5045
ssI2348
(dp6770
I2117
g5046
ssI2349
(dp6771
I2117
g5047
ssI2350
(dp6772
I2117
g5048
ssI2355
(dp6773
I2248
g5201
sI1889
g4669
sI2275
g5245
sI1452
g3993
ssI2356
(dp6774
I2248
g5202
sI1889
g4670
sI2275
g5246
sI1452
g3994
ssI2357
(dp6775
I2248
g5203
sI1889
g4671
sI2275
g5247
sI1452
g3995
ssI2358
(dp6776
I2248
g5204
sI1889
g4672
sI2275
g5248
sI1452
g3996
ssI2360
(dp6777
sI2366
(dp6778
I2360
g5343
sI2297
g5285
sI2175
g5113
ssI2367
(dp6779
I2128
g5064
sI2175
g5114
sI2255
g5213
ssI2368
(dp6780
I2312
g5297
sI2165
g5103
sI2255
g5212
ssI2369
(dp6781
sI2372
(dp6782
I2369
g5348
ssI2373
(dp6783
I2369
g5349
ssI2374
(dp6784
I2369
g5350
ssI2375
(dp6785
I2369
g5351
sI2019
g4885
ssI2376
(dp6786
I2019
g4882
ssI2377
(dp6787
I2019
g4883
ssI2378
(dp6788
I2019
g4884
sI2276
g5250
ssI2379
(dp6789
I2276
g5251
ssI2380
(dp6790
I2276
g5252
ssI2381
(dp6791
I2276
g5253
ssI2385
(dp6792
sI2389
(dp6793
I2105
g5030
sI2350
g5329
ssI2390
(dp6794
I2057
g4943
sI2350
g5330
ssI2391
(dp6795
I2057
g4944
sI2183
g5120
ssI2392
(dp6796
I2385
g5364
sI2183
g5119
ssI2393
(dp6797
I2385
g5365
sI2358
g5340
ssI2394
(dp6798
I2331
g5310
sI2358
g5341
ssI2395
(dp6799
I2105
g5029
sI2331
g5311
ssI2401
(dp6800
I2210
g5152
sI2395
g5374
sI2220
g5165
sI2027
g4906
sI1471
g4026
ssI2402
(dp6801
I2210
g5153
sI2395
g5375
sI2220
g5166
sI2027
g4907
sI1471
g4027
ssI2403
(dp6802
I2210
g5154
sI2395
g5376
sI2220
g5167
sI2027
g4908
sI1471
g4028
ssI2404
(dp6803
I2210
g5155
sI2395
g5377
sI2220
g5168
sI2027
g4909
sI1471
g4029
ssI2405
(dp6804
I2210
g5156
sI2395
g5378
sI2220
g5169
sI2027
g4910
sI1471
g4030
ssI2409
(dp6805
sI2411
(dp6806
I2192
g5130
sI2409
g5385
sI2274
g5239
sI2355
g5332
sI2061
g4951
ssI2412
(dp6807
I2192
g5131
sI2409
g5386
sI2274
g5240
sI2355
g5333
sI2061
g4952
ssI2413
(dp6808
I2192
g5132
sI2409
g5387
sI2274
g5241
sI2355
g5334
sI2061
g4953
ssI2414
(dp6809
I2192
g5133
sI2409
g5388
sI2274
g5242
sI2355
g5335
sI2061
g4954
ssI2415
(dp6810
I2192
g5134
sI2409
g5389
sI2274
g5243
sI2355
g5336
sI2061
g4955
ssI2421
(dp6811
I2296
g5283
sI2058
g4946
sI1955
g4789
ssI2422
(dp6812
I2058
g4947
sI2263
g5228
sI2231
g5178
ssI2425
(dp6813
I2254
g5209
ssI2426
(dp6814
I2254
g5210
sI2422
g5399
ssI2430
(dp6815
I1476
g4035
sI2011
g4862
sI1684
g4358
ssI2431
(dp6816
I1476
g4036
sI2011
g4863
sI1684
g4359
ssI2432
(dp6817
I1476
g4034
sI2011
g4861
sI1684
g4357
ssI2434
(dp6818
sI2436
(dp6819
I2071
g4976
ssI2437
(dp6820
I2434
g5407
sI2071
g4977
ssI2438
(dp6821
I1584
g4200
sI2434
g5408
ssI2441
(dp6822
I2026
g4903
sI2131
g5066
ssI2442
(dp6823
I2026
g4904
sI2131
g5067
ssI2447
(dp6824
I2432
g5405
sI1572
g4182
ssI2448
(dp6825
I2267
g5235
sI1572
g4181
ssI2449
(dp6826
I2378
g5359
sI2267
g5236
ssI2452
(dp6827
I2200
g5139
ssI2453
(dp6828
I2200
g5140
sI2390
g5368
ssI2456
(dp6829
I2277
g5255
sI2415
g5395
ssI2457
(dp6830
I2277
g5256
sI2415
g5396
ssI2460
(dp6831
I2448
g5417
ssI2461
(dp6832
I2448
g5418
sI2335
g5316
ssI2464
(dp6833
I1963
g4810
ssI2465
(dp6834
I1963
g4811
sI2438
g5412
ssI2469
(dp6835
I1822
g4551
ssI2470
(dp6836
I1822
g4552
ssI2471
(dp6837
I1822
g4553
sI1823
g4557
ssI2472
(dp6838
I1823
g4555
ssI2473
(dp6839
I2281
g5259
sI1823
g4556
ssI2474
(dp6840
I2281
g5260
ssI2475
(dp6841
I2281
g5261
sssS'adj'
p6842
g1420
sbsS'sydney_sched'
p6843
(lp6844
I1365
aI2369
aI833
aI837
aI5
aI636
aI642
aI682
aI3
aI4
aI2
aI1
aI2260
aI836
aI869
aI1086
aI1395
aI1788
aI1791
aI1872
aI1931
aI1932
aI1936
aI8
aI93
aI7
aI687
aI1773
aI6
aI686
aI11
aI688
aI20
aI689
aI782
aI748
aI781
aI637
aI704
aI786
aI1460
aI1464
aI798
aI787
aI643
aI788
aI752
aI30
aI705
aI29
aI749
aI28
aI758
aI761
aI1777
aI710
aI19
aI98
aI2085
aI275
aI568
aI366
aI2083
aI567
aI209
aI907
aI210
aI215
aI211
aI216
aI268
aI909
aI221
aI238
aI1527
aI65
aI354
aI541
aI2156
aI66
aI359
aI690
aI353
aI190
aI1711
aI16
aI1133
aI10
aI641
aI14
aI23
aI12
aI24
aI152
aI510
aI511
aI514
aI1268
aI789
aI401
aI1267
aI9
aI63
aI15
aI64
aI71
aI77
aI76
aI85
aI117
aI110
aI116
aI169
aI195
aI168
aI82
aI128
aI1376
aI38
aI220
aI37
aI499
aI35
aI43
aI72
aI68
aI73
aI99
aI36
aI44
aI910
aI42
aI271
aI13
aI54
aI52
aI53
aI60
aI100
aI59
aI81
aI90
aI80
aI91
aI56
aI51
aI86
aI102
aI112
aI92
aI113
aI131
aI101
aI130
aI55
aI105
aI134
aI144
aI115
aI106
aI126
aI155
aI114
aI129
aI161
aI133
aI132
aI139
aI146
aI166
aI70
aI147
aI165
aI178
aI206
aI179
aI207
aI228
aI162
aI227
aI160
aI177
aI145
aI167
aI127
aI156
aI172
aI189
aI187
aI188
aI196
aI203
aI222
aI185
aI198
aI259
aI197
aI214
aI295
aI186
aI249
aI173
aI248
aI232
aI247
aI254
aI294
aI213
aI223
aI258
aI202
aI231
aI250
aI251
aI264
aI276
aI273
aI277
aI217
aI199
aI246
aI255
aI263
aI270
aI279
aI269
aI278
aI265
aI287
aI290
aI305
aI299
aI289
aI306
aI307
aI308
aI315
aI301
aI314
aI300
aI313
aI1285
aI312
aI1016
aI286
aI1017
aI1021
aI1445
aI291
aI357
aI318
aI323
aI383
aI322
aI382
aI321
aI384
aI320
aI327
aI1087
aI288
aI341
aI329
aI337
aI349
aI369
aI378
aI398
aI381
aI340
aI380
aI339
aI379
aI338
aI370
aI336
aI377
aI1914
aI351
aI1295
aI350
aI1085
aI328
aI371
aI388
aI385
aI386
aI407
aI419
aI408
aI418
aI1027
aI438
aI564
aI387
aI566
aI348
aI416
aI347
aI372
aI392
aI399
aI391
aI390
aI389
aI393
aI412
aI421
aI397
aI432
aI440
aI472
aI410
aI473
aI409
aI430
aI422
aI451
aI442
aI431
aI513
aI411
aI450
aI420
aI439
aI455
aI458
aI462
aI467
aI459
aI468
aI481
aI474
aI478
aI490
aI454
aI482
aI492
aI469
aI491
aI504
aI498
aI505
aI526
aI534
aI522
aI533
aI521
aI532
aI560
aI573
aI613
aI486
aI523
aI497
aI639
aI485
aI506
aI524
aI539
aI561
aI586
aI604
aI441
aI584
aI531
aI540
aI587
aI507
aI609
aI646
aI525
aI538
aI477
aI512
aI547
aI574
aI549
aI556
aI545
aI577
aI546
aI578
aI605
aI557
aI582
aI647
aI581
aI496
aI588
aI1427
aI559
aI600
aI617
aI599
aI614
aI631
aI634
aI651
aI700
aI597
aI701
aI596
aI610
aI595
aI627
aI644
aI699
aI766
aI846
aI845
aI698
aI927
aI697
aI722
aI751
aI931
aI750
aI767
aI783
aI794
aI799
aI966
aI709
aI558
aI626
aI693
aI756
aI755
aI762
aI695
aI694
aI720
aI769
aI777
aI728
aI801
aI804
aI812
aI760
aI842
aI1084
aI776
aI1026
aI841
aI1025
aI696
aI1083
aI692
aI784
aI708
aI785
aI858
aI857
aI878
aI1039
aI855
aI862
aI937
aI880
aI940
aI967
aI1314
aI915
aI881
aI914
aI879
aI913
aI856
aI912
aI691
aI911
aI721
aI737
aI719
aI1150
aI930
aI955
aI928
aI999
aI929
aI998
aI645
aI1000
aI623
aI900
aI652
aI899
aI650
aI898
aI630
aI897
aI598
aI655
aI1159
aI654
aI463
aI653
aI548
aI572
aI625
aI656
aI675
aI606
aI676
aI813
aI624
aI674
aI729
aI745
aI825
aI839
aI868
aI906
aI903
aI902
aI950
aI983
aI904
aI988
aI1176
aI1191
aI1396
aI1190
aI948
aI1035
aI1358
aI1506
aI1672
aI1030
aI867
aI938
aI814
aI826
aI1020
aI838
aI1153
aI1102
aI1041
aI1493
aI1040
aI1189
aI1044
aI681
aI1223
aI1531
aI1271
aI984
aI1003
aI1031
aI1140
aI905
aI1139
aI901
aI949
aI840
aI618
aI680
aI635
aI677
aI714
aI738
aI795
aI823
aI918
aI945
aI1079
aI1144
aI1244
aI1247
aI917
aI944
aI1019
aI1071
aI1277
aI976
aI1351
aI1145
aI1421
aI1604
aI1626
aI946
aI1627
aI1911
aI2074
aI1360
aI1403
aI713
aI727
aI744
aI773
aI772
aI811
aI850
aI810
aI830
aI832
aI895
aI953
aI923
aI958
aI970
aI893
aI971
aI1152
aI896
aI986
aI1211
aI1258
aI1259
aI1562
aI805
aI824
aI831
aI863
aI987
aI1255
aI849
aI925
aI803
aI959
aI1010
aI1124
aI864
aI1123
aI1405
aI872
aI919
aI875
aI873
aI962
aI877
aI963
aI1046
aI891
aI994
aI1074
aI916
aI1075
aI1250
aI1254
aI1763
aI993
aI1764
aI1251
aI1214
aI1621
aI1253
aI1036
aI1246
aI1288
aI1353
aI1486
aI876
aI1330
aI1457
aI1402
aI1458
aI1589
aI2023
aI2159
aI2160
aI1484
aI1629
aI1793
aI1644
aI1485
aI1643
aI1289
aI1356
aI1447
aI1350
aI1352
aI1502
aI1387
aI1252
aI1448
aI1178
aI939
aI1177
aI1257
aI1305
aI1151
aI992
aI985
aI1013
aI894
aI1126
aI1182
aI1181
aI1186
aI1195
aI1212
aI1692
aI1109
aI1125
aI1370
aI1490
aI1368
aI1488
aI1577
aI1694
aI1576
aI1194
aI1369
aI1193
aI1308
aI1453
aI1754
aI1012
aI1213
aI1004
aI1065
aI1011
aI1185
aI947
aI1066
aI1141
aI1481
aI1498
aI1480
aI1224
aI1538
aI1014
aI954
aI924
aI1094
aI1101
aI1105
aI1078
aI922
aI1064
aI921
aI1095
aI1298
aI1309
aI1772
aI1100
aI1137
aI1170
aI1106
aI1634
aI920
aI1507
aI1814
aI1122
aI926
aI1553
aI874
aI1828
aI1022
aI1234
aI1345
aI1671
aI1851
aI1239
aI1233
aI1276
aI1571
aI1636
aI1750
aI1900
aI2033
aI1237
aI1494
aI1698
aI1530
aI1339
aI1342
aI1110
aI1362
aI892
aI1359
aI975
aI1129
aI1164
aI1222
aI1371
aI1477
aI1688
aI1160
aI1375
aI1161
aI1171
aI1717
aI1281
aI1518
aI1780
aI1922
aI1957
aI1960
aI2239
aI1221
aI1877
aI1952
aI2019
aI1969
aI1958
aI1130
aI1373
aI1070
aI1372
aI1554
aI1165
aI1162
aI1200
aI1215
aI1264
aI1293
aI1203
aI1292
aI1318
aI1416
aI1431
aI1449
aI1593
aI1656
aI1858
aI2108
aI1430
aI1443
aI1380
aI1410
aI1523
aI1548
aI1640
aI1547
aI1615
aI1767
aI1867
aI2117
aI1216
aI1335
aI1529
aI1566
aI1586
aI2090
aI1583
aI1758
aI1779
aI1822
aI1382
aI2092
aI2276
aI1567
aI1704
aI1413
aI1730
aI1785
aI1999
aI2024
aI2257
aI2028
aI2103
aI1419
aI1377
aI1355
aI1169
aI2226
aI1602
aI1823
aI2018
aI2104
aI768
aI822
aI1598
aI1594
aI1614
aI1299
aI1240
aI1304
aI1312
aI1657
aI1313
aI1479
aI1354
aI1905
aI2186
aI1599
aI1374
aI1611
aI1908
aI1429
aI1826
aI1238
aI1282
aI1862
aI1912
aI1925
aI1852
aI1879
aI1248
aI908
aI1328
aI1459
aI1568
aI1561
aI1716
aI1840
aI1784
aI1616
aI1886
aI1863
aI1340
aI1236
aI1343
aI1317
aI1336
aI1424
aI1265
aI1390
aI1465
aI1508
aI1470
aI1707
aI1541
aI1746
aI1297
aI1702
aI1501
aI1557
aI1942
aI1740
aI1712
aI1411
aI1719
aI1729
aI1639
aI1192
aI2029
aI1718
aI1082
aI1935
aI1870
aI1201
aI2110
aI1834
aI1890
aI2089
aI1283
aI2062
aI1745
aI1996
aI1953
aI1715
aI1423
aI1466
aI2200
aI1379
aI1590
aI1540
aI1693
aI2118
aI1839
aI1842
aI2158
aI2282
aI2286
aI1956
aI2338
aI2102
aI1941
aI1522
aI1524
aI2205
aI1738
aI2016
aI2084
aI1903
aI2064
aI2071
aI2072
aI2067
aI1341
aI2098
aI2254
aI1497
aI1386
aI1954
aI1902
aI882
aI1654
aI1658
aI1329
aI1558
aI1344
aI1628
aI1907
aI1659
aI2256
aI1546
aI1963
aI1876
aI1846
aI2094
aI2154
aI1697
aI2234
aI2189
aI2292
aI1749
aI2294
aI1751
aI2151
aI2026
aI2000
aI1489
aI1959
aI1924
aI1929
aI2063
aI1585
aI2218
aI1926
aI2126
aI1947
aI2013
aI1270
aI2015
aI1263
aI1272
aI1398
aI2320
aI2047
aI1899
aI1885
aI1945
aI2012
aI1737
aI1987
aI1985
aI2131
aI1986
aI1887
aI2146
aI2139
aI2166
aI2237
aI2434
aI2233
aI1584
aI2438
aI1832
aI2114
aI2010
aI2052
aI2080
aI1827
aI2025
aI1381
aI1163
aI1202
aI1138
aI1378
aI1650
aI1720
aI1175
aI1331
aI1467
aI1578
aI1759
aI2266
aI2105
aI2350
aI2057
aI2390
aI1600
aI1623
aI1651
aI1723
aI2043
aI2281
aI1245
aI1287
aI1397
aI1519
aI2122
aI2183
aI2331
aI2385
aI2121
aI2395
aI2027
aI1471
aI2210
aI2220
aI1625
aI1841
aI1835
aI1896
aI1786
aI1948
aI1735
aI2069
aI1889
aI1417
aI2061
aI821
aI2127
aI1452
aI2244
aI2248
aI2192
aI1045
aI1825
aI1357
aI2274
aI1572
aI2267
aI2448
aI2277
aI941
aI1422
aI1032
aI1067
aI2275
aI1235
aI1442
aI2039
aI2116
aI2355
aI2409
aI2415
aI1968
aI2358
aI2378
aI2335
aI2031
aI1664
aI1394
aI2070
aI1542
aI1685
aI1476
aI1361
aI1624
aI1684
aI2011
aI2432
aI1487
aI1787
aI1678
aI2307
aI1635
aI2169
aI2058
aI2053
aI1743
aI1778
aI1601
aI2231
aI2296
aI2263
aI2422
aI1955
aI2175
aI2255
aI2128
aI2360
aI2312
aI2297
aI2165
aI1970
aI2302
aI2287
aI2298
aI1981
aI1256
aI1478
aI1760
aI1771
aI1412
aI1812
aI1666
aI1603
aI1475
aI1949
aI2174
aI1854
aI1938
aI2413
aI1871
aI1731
aI1703
aI1383
aI2204
aI1734
aI1744
aI1888
aI2273
aI1845
aI2153
aI2088
aI2238
aI1998
aI1539
aI2003
aI2375
aI2449
aI2377
aI2161
aI2075
aI2288
aI1665
aI1630
aI1708
aI2201
aI1667
aI2340
aI2373
aI2389
aI2334
aI2348
aI1622
aI2346
aI2330
aI2207
aI2332
aI1978
aI2079
aI2221
aI2115
aI2225
aI2135
aI2412
aI2339
aI2265
aI2197
aI2264
aI2191
aI1979
aI1391
aI1545
aI2380
aI1686
aI2452
aI1971
aI2403
aI1973
aI2368
aI2073
aI2456
aI1972
aI2020
aI1895
aI2401
aI1891
aI2261
aI1859
aI2022
aI2437
aI2426
aI2136
aI2203
aI2132
aI2240
aI2179
aI2465
aI2430
aI2014
aI1857
aI2379
aI2038
aI2469
aI2034
aI2411
aI1432
aI2461
aI2313
aI2066
aI2356
aI2208
aI1923
aI2060
aI2182
aI1612
aI2470
aI2367
aI2472
aI2324
aI2219
aI1921
aI2474
aI1613
aI2214
aI1249
aI1818
aI2329
aI2251
aI1367
aI1920
aI2421
aI2253
aI2109
aI2173
aI2442
aI1736
aI2187
aI2303
aI1617
aI2065
aI2394
aI2392
aI1967
aI1824
aI1724
aI2140
aI2030
aI2414
aI1792
aI2001
aI2376
aI1853
aI2393
aI1866
aI2391
aI2460
aI1687
aI2425
aI2436
aI1755
aI1768
aI2289
aI1404
aI1811
aI2252
aI2021
aI2475
aI2145
aI1819
aI2457
aI2215
aI2193
aI2213
aI2321
aI1813
aI2325
aI2473
aI2209
aI2471
aI2464
aI2357
aI2366
aI2068
aI2196
aI1937
aI2295
aI2431
aI2202
aI2317
aI2059
aI2178
aI2206
aI1549
aI2091
aI2002
aI2241
aI1930
aI2316
aI2170
aI2247
aI2349
aI2093
aI2341
aI1997
aI2345
aI2017
aI2347
aI2152
aI2381
aI2402
aI2097
aI1833
aI2262
aI2232
aI2441
aI2453
aI2230
aI1831
aI2144
aI2405
aI2224
aI2032
aI2309
aI2344
aI2447
aI1980
aI1946
aI2374
aI2009
aI2372
aI2304
aI2333
aI2280
aI1964
aI2048
aI2162
aI2308
aI2049
aI1670
aI2404
aI2040
aI1906
aI2044
asS'dynamic_sched'
p6845
(lp6846
I2369
aI1365
aI2260
aI1
aI833
aI837
aI5
aI2
aI4
aI3
aI8
aI836
aI869
aI1086
aI1395
aI93
aI7
aI636
aI642
aI682
aI688
aI637
aI689
aI748
aI687
aI782
aI686
aI781
aI6
aI704
aI786
aI1460
aI11
aI1773
aI20
aI1788
aI1791
aI1872
aI1377
aI1931
aI2282
aI2286
aI2226
aI2338
aI2110
aI2114
aI1932
aI1936
aI1946
aI2230
aI1945
aI1787
aI2287
aI2307
aI2309
aI30
aI2341
aI29
aI2339
aI798
aI1935
aI28
aI1973
aI749
aI1972
aI758
aI761
aI710
aI1971
aI705
aI1777
aI1476
aI1464
aI1475
aI787
aI1085
aI788
aI19
aI752
aI14
aI643
aI10
aI23
aI13
aI24
aI15
aI690
aI9
aI38
aI16
aI37
aI2267
aI35
aI44
aI36
aI43
aI42
aI54
aI68
aI53
aI52
aI80
aI126
aI56
aI92
aI73
aI60
aI55
aI59
aI51
aI98
aI2266
aI1394
aI2374
aI12
aI2373
aI63
aI70
aI910
aI2372
aI909
aI64
aI908
aI65
aI71
aI77
aI81
aI76
aI85
aI117
aI110
aI116
aI66
aI72
aI100
aI91
aI101
aI105
aI90
aI86
aI102
aI113
aI112
aI130
aI131
aI129
aI115
aI132
aI114
aI99
aI147
aI160
aI169
aI106
aI190
aI139
aI146
aI133
aI145
aI167
aI168
aI166
aI127
aI165
aI178
aI128
aI179
aI152
aI156
aI173
aI177
aI172
aI82
aI207
aI134
aI144
aI155
aI162
aI188
aI196
aI185
aI187
aI199
aI197
aI198
aI209
aI189
aI210
aI215
aI211
aI216
aI203
aI222
aI220
aI223
aI231
aI217
aI186
aI161
aI246
aI232
aI247
aI250
aI268
aI214
aI221
aI238
aI206
aI227
aI249
aI255
aI195
aI228
aI259
aI295
aI258
aI294
aI265
aI254
aI248
aI202
aI213
aI251
aI263
aI270
aI264
aI275
aI273
aI271
aI276
aI278
aI279
aI277
aI308
aI269
aI287
aI290
aI305
aI299
aI289
aI306
aI315
aI301
aI314
aI300
aI313
aI907
aI312
aI1378
aI307
aI1376
aI286
aI2434
aI291
aI2409
aI318
aI323
aI383
aI322
aI382
aI321
aI384
aI320
aI327
aI2385
aI288
aI341
aI329
aI337
aI351
aI340
aI350
aI339
aI349
aI338
aI348
aI336
aI347
aI328
aI371
aI385
aI366
aI372
aI391
aI392
aI397
aI474
aI390
aI388
aI393
aI401
aI387
aI412
aI386
aI407
aI416
aI421
aI389
aI418
aI441
aI422
aI419
aI411
aI420
aI2360
aI408
aI2302
aI438
aI2298
aI353
aI2292
aI354
aI369
aI378
aI399
aI410
aI398
aI451
aI431
aI409
aI2244
aI377
aI430
aI442
aI450
aI381
aI2218
aI380
aI2189
aI379
aI2158
aI357
aI2156
aI359
aI370
aI432
aI439
aI455
aI458
aI440
aI472
aI485
aI459
aI468
aI462
aI467
aI481
aI454
aI482
aI478
aI490
aI497
aI469
aI498
aI506
aI491
aI505
aI521
aI486
aI523
aI499
aI524
aI539
aI531
aI540
aI504
aI538
aI525
aI477
aI492
aI568
aI473
aI512
aI510
aI513
aI526
aI534
aI511
aI514
aI522
aI533
aI561
aI586
aI604
aI532
aI584
aI587
aI574
aI588
aI558
aI609
aI560
aI507
aI559
aI541
aI547
aI545
aI549
aI556
aI546
aI578
aI577
aI582
aI605
aI557
aI581
aI2102
aI496
aI600
aI595
aI626
aI693
aI756
aI755
aI762
aI695
aI627
aI644
aI639
aI617
aI597
aI596
aI610
aI623
aI630
aI606
aI655
aI645
aI654
aI812
aI656
aI842
aI728
aI841
aI760
aI694
aI599
aI692
aI598
aI691
aI2085
aI618
aI2084
aI548
aI2083
aI463
aI1914
aI564
aI572
aI625
aI1903
aI624
aI1902
aI566
aI1879
aI567
aI573
aI614
aI631
aI634
aI651
aI700
aI698
aI720
aI709
aI701
aI697
aI722
aI751
aI776
aI769
aI699
aI750
aI767
aI708
aI613
aI650
aI676
aI813
aI641
aI647
aI674
aI814
aI635
aI768
aI822
aI1598
aI1715
aI1599
aI826
aI677
aI1016
aI1020
aI1017
aI1021
aI821
aI729
aI737
aI646
aI777
aI766
aI846
aI845
aI801
aI927
aI931
aI1150
aI955
aI804
aI900
aI930
aI899
aI929
aI898
aI928
aI897
aI783
aI721
aI789
aI794
aI799
aI966
aI1084
aI719
aI1083
aI696
aI745
aI825
aI839
aI868
aI906
aI950
aI983
aI904
aI988
aI1176
aI1191
aI1396
aI902
aI948
aI1035
aI1358
aI1506
aI1672
aI1133
aI838
aI1153
aI1139
aI1831
aI1357
aI1832
aI1140
aI1493
aI1398
aI1190
aI1397
aI1189
aI1175
aI905
aI1003
aI903
aI949
aI1027
aI1030
aI1044
aI1031
aI901
aI1032
aI840
aI867
aI1082
aI1087
aI784
aI1159
aI785
aI858
aI857
aI856
aI914
aI881
aI855
aI862
aI938
aI882
aI878
aI1039
aI1138
aI1331
aI880
aI940
aI967
aI1314
aI1601
aI1040
aI1600
aI1041
aI1467
aI1102
aI941
aI879
aI937
aI1267
aI984
aI1268
aI1271
aI1270
aI999
aI1285
aI998
aI1295
aI1000
aI1299
aI915
aI1419
aI913
aI1427
aI912
aI1445
aI911
aI1522
aI1026
aI1527
aI1025
aI1654
aI653
aI1678
aI652
aI675
aI680
aI714
aI738
aI795
aI823
aI918
aI945
aI1079
aI1144
aI1244
aI1247
aI917
aI1145
aI1421
aI1604
aI1626
aI944
aI1019
aI1071
aI1277
aI1627
aI1911
aI2074
aI2071
aI2072
aI1351
aI1602
aI919
aI976
aI713
aI727
aI744
aI773
aI772
aI811
aI850
aI810
aI830
aI832
aI895
aI953
aI923
aI958
aI970
aI893
aI971
aI1152
aI896
aI986
aI1211
aI1258
aI1259
aI1562
aI1341
aI1255
aI805
aI824
aI831
aI863
aI987
aI925
aI849
aI959
aI1010
aI872
aI864
aI875
aI803
aI1123
aI1405
aI1360
aI681
aI946
aI1403
aI1554
aI1124
aI1223
aI873
aI962
aI1045
aI877
aI963
aI1067
aI891
aI994
aI1074
aI916
aI1075
aI1250
aI993
aI1251
aI1317
aI1336
aI1470
aI1214
aI1623
aI1254
aI1622
aI1531
aI1763
aI1764
aI1899
aI2062
aI1621
aI2061
aI1624
aI2060
aI1361
aI1684
aI1046
aI2059
aI1616
aI2058
aI1402
aI2057
aI1404
aI1253
aI1013
aI1246
aI1288
aI1354
aI1353
aI1486
aI1905
aI2186
aI2234
aI1484
aI2098
aI2187
aI1644
aI2296
aI1643
aI1485
aI1907
aI1356
aI1906
aI1350
aI1386
aI1471
aI1387
aI1355
aI1287
aI1070
aI1412
aI1252
aI1289
aI1249
aI1012
aI1178
aI1011
aI1177
aI1014
aI1257
aI924
aI1094
aI1101
aI1105
aI1078
aI921
aI1095
aI1298
aI1309
aI1772
aI2200
aI1100
aI1169
aI2452
aI1110
aI1283
aI2204
aI1771
aI2203
aI1106
aI2202
aI920
aI1122
aI992
aI2201
aI1224
aI1635
aI1447
aI1634
aI1352
aI1502
aI1448
aI1501
aI939
aI1305
aI1004
aI1065
aI947
aI1066
aI1141
aI1480
aI1751
aI1481
aI1738
aI1553
aI1737
aI1828
aI1561
aI1827
aI1256
aI1826
aI1151
aI1340
aI985
aI1339
aI894
aI1126
aI1182
aI1181
aI1186
aI1195
aI1212
aI1692
aI1109
aI1125
aI1370
aI1490
aI1368
aI2262
aI1578
aI2261
aI1577
aI1487
aI1576
aI1489
aI1367
aI1488
aI1369
aI1694
aI1308
aI1453
aI1498
aI1538
aI1497
aI1452
aI1755
aI1194
aI1754
aI1193
aI1213
aI1192
aI1185
aI1546
aI954
aI1545
aI922
aI1064
aI1137
aI1170
aI926
aI892
aI876
aI975
aI1129
aI1164
aI1222
aI1371
aI1477
aI1375
aI1160
aI1282
aI1863
aI1688
aI1862
aI1912
aI1924
aI1711
aI1423
aI1712
aI1718
aI1374
aI1424
aI1465
aI1479
aI1611
aI1908
aI1925
aI1036
aI1330
aI1458
aI1589
aI2023
aI2159
aI2160
aI1161
aI1457
aI1792
aI1629
aI1793
aI1171
aI1507
aI1814
aI2330
aI2253
aI2329
aI2252
aI2162
aI2251
aI1926
aI2022
aI1937
aI2021
aI1466
aI2020
aI1930
aI2175
aI1929
aI1708
aI1921
aI1707
aI1920
aI1539
aI1281
aI1717
aI1221
aI1877
aI1952
aI2019
aI2018
aI2104
aI2015
aI2320
aI1955
aI2016
aI1953
aI2049
aI2215
aI2421
aI2325
aI2321
aI2324
aI2105
aI2332
aI2331
aI2395
aI2017
aI2375
aI1716
aI2377
aI1478
aI2376
aI1130
aI1954
aI874
aI1687
aI1022
aI1234
aI1345
aI1671
aI1851
aI1240
aI1304
aI1313
aI1343
aI1508
aI1342
aI1312
aI1233
aI1276
aI1572
aI2448
aI1571
aI1636
aI1750
aI1900
aI2033
aI1239
aI1749
aI2297
aI1236
aI1297
aI1237
aI1494
aI1698
aI1238
aI1329
aI1659
aI1963
aI1248
aI1328
aI1697
aI2192
aI1459
aI1964
aI2464
aI1558
aI1857
aI1658
aI1628
aI1344
aI1664
aI1686
aI1542
aI1685
aI1665
aI2070
aI2197
aI1666
aI2196
aI1557
aI1667
aI2366
aI2118
aI1530
aI1524
aI2034
aI1949
aI2032
aI1948
aI2031
aI1947
aI2030
aI1670
aI2460
aI1235
aI1612
aI1373
aI1854
aI1372
aI1853
aI1165
aI1852
aI1162
aI1200
aI1215
aI1265
aI1390
aI1264
aI1293
aI1382
aI1568
aI1380
aI1411
aI1203
aI1410
aI1523
aI1548
aI1640
aI1639
aI1379
aI1590
aI1541
aI1746
aI1740
aI1745
aI1540
aI1839
aI1842
aI2067
aI1263
aI1272
aI1202
aI1651
aI1381
aI1650
aI1720
aI1760
aI1812
aI1603
aI1216
aI1335
aI1529
aI1566
aI1586
aI2090
aI1583
aI1758
aI1779
aI1822
aI1870
aI2094
aI1823
aI1567
aI1584
aI2438
aI1292
aI1318
aI1416
aI1431
aI1449
aI1593
aI1657
aI1656
aI1547
aI1615
aI1767
aI1594
aI1614
aI1867
aI2117
aI2350
aI2390
aI1430
aI1443
aI1702
aI1942
aI2064
aI1941
aI2063
aI2219
aI2340
aI2165
aI2174
aI2389
aI2173
aI1613
aI1704
aI1768
aI1693
aI1703
aI1413
aI1730
aI1785
aI1999
aI2024
aI2257
aI1996
aI2154
aI2294
aI2256
aI2029
aI2254
aI2028
aI2103
aI2335
aI1719
aI1729
aI1743
aI1834
aI1201
aI1998
aI2000
aI1818
aI1744
aI2334
aI2461
aI2333
aI2093
aI2425
aI2313
aI2317
aI2312
aI2316
aI2255
aI2368
aI2153
aI2295
aI2003
aI2263
aI2002
aI2265
aI2001
aI2264
aI1997
aI2027
aI1731
aI2026
aI1859
aI2025
aI1858
aI1723
aI2043
aI2281
aI2475
aI2280
aI2474
aI1784
aI2473
aI1811
aI2044
aI2453
aI1417
aI2349
aI1422
aI1442
aI2465
aI1825
aI2039
aI2116
aI2225
aI2115
aI2224
aI2348
aI1786
aI1866
aI2191
aI1735
aI2193
aI1835
aI1895
aI1625
aI1896
aI1734
aI1841
aI1981
aI2470
aI1980
aI2469
aI1979
aI1778
aI1978
aI2207
aI1736
aI2206
aI1429
aI2205
aI1840
aI1886
aI2011
aI2432
aI1890
aI2089
aI2151
aI2183
aI2391
aI2182
aI2392
aI2431
aI2152
aI2430
aI2447
aI1887
aI2014
aI2012
aI2146
aI2214
aI2013
aI2213
aI2010
aI1885
aI2009
aI2047
aI2169
aI2308
aI2170
aI1891
aI1432
aI1889
aI2471
aI1888
aI2472
aI2210
aI1824
aI2209
aI1759
aI2208
aI2092
aI1585
aI2091
aI1846
aI2126
aI2128
aI2367
aI2179
aI2127
aI2178
aI2069
aI2248
aI2088
aI1813
aI1819
aI1724
aI1938
aI2048
aI2068
aI2161
aI2066
aI1876
aI2065
aI1871
aI1549
aI1845
aI1391
aI1383
aI1163
aI2437
aI1245
aI1519
aI2122
aI2347
aI2121
aI2346
aI1617
aI2345
aI2097
aI2344
aI2241
aI2436
aI2240
aI2075
aI1362
aI2073
aI1359
aI1518
aI1780
aI1922
aI1957
aI1960
aI2239
aI2276
aI2275
aI1959
aI1987
aI2052
aI2080
aI2358
aI1986
aI1970
aI1985
aI2131
aI1956
aI1969
aI1968
aI2139
aI2166
aI2220
aI2108
aI2231
aI1958
aI2233
aI2422
aI2053
aI2378
aI2237
aI2288
aI2449
aI2247
aI2426
aI2289
aI2232
aI2405
aI2221
aI2404
aI2038
aI2403
aI2040
aI2402
aI2140
aI2401
aI2132
aI2109
aI2135
aI2442
aI2136
aI2441
aI2145
aI2303
aI2144
aI2304
aI2357
aI2394
aI2356
aI2393
aI2355
aI2079
aI2274
aI2415
aI2277
aI2457
aI2273
aI2456
aI1967
aI2414
aI1923
aI2413
aI1630
aI2412
aI1833
aI2411
aI2238
aI2381
aI2379
aI2380
asS'aopsd_sched'
p6847
(lp6848
I833
aI837
aI1365
aI2369
aI1
aI5
aI2
aI3
aI4
aI2260
aI636
aI637
aI642
aI682
aI836
aI869
aI1086
aI1395
aI1788
aI1791
aI1872
aI1931
aI1932
aI1773
aI1377
aI748
aI8
aI7
aI14
aI10
aI6
aI11
aI93
aI686
aI687
aI688
aI689
aI782
aI781
aI1460
aI2282
aI2110
aI2114
aI2286
aI2338
aI2226
aI64
aI63
aI65
aI20
aI16
aI29
aI12
aI9
aI71
aI23
aI24
aI15
aI19
aI13
aI28
aI35
aI37
aI76
aI77
aI85
aI110
aI44
aI38
aI43
aI66
aI68
aI30
aI42
aI36
aI82
aI52
aI116
aI54
aI53
aI51
aI72
aI117
aI98
aI56
aI55
aI73
aI59
aI81
aI80
aI60
aI86
aI168
aI169
aI190
aI128
aI126
aI99
aI127
aI91
aI100
aI101
aI102
aI92
aI90
aI132
aI70
aI105
aI112
aI113
aI106
aI139
aI147
aI134
aI195
aI133
aI146
aI130
aI129
aI209
aI210
aI211
aI216
aI215
aI165
aI166
aI144
aI160
aI167
aI145
aI152
aI114
aI131
aI115
aI155
aI156
aI178
aI179
aI206
aI221
aI268
aI173
aI207
aI162
aI172
aI177
aI161
aI187
aI185
aI188
aI189
aI196
aI197
aI228
aI198
aI217
aI199
aI259
aI203
aI220
aI186
aI202
aI258
aI246
aI238
aI214
aI227
aI213
aI222
aI249
aI223
aI231
aI232
aI251
aI255
aI254
aI263
aI250
aI265
aI273
aI270
aI275
aI264
aI271
aI248
aI269
aI294
aI247
aI295
aI277
aI290
aI289
aI291
aI287
aI276
aI286
aI288
aI299
aI305
aI278
aI308
aI306
aI300
aI301
aI279
aI315
aI313
aI312
aI307
aI318
aI314
aI323
aI320
aI321
aI327
aI336
aI340
aI322
aI329
aI357
aI328
aI338
aI341
aI337
aI384
aI382
aI359
aI339
aI383
aI366
aI351
aI350
aI347
aI348
aI349
aI354
aI353
aI370
aI369
aI371
aI372
aI391
aI392
aI378
aI385
aI387
aI393
aI390
aI416
aI389
aI377
aI388
aI401
aI386
aI380
aI379
aI381
aI407
aI412
aI399
aI397
aI432
aI418
aI410
aI421
aI409
aI420
aI419
aI440
aI430
aI511
aI510
aI408
aI422
aI398
aI472
aI473
aI514
aI439
aI438
aI474
aI431
aI451
aI411
aI442
aI441
aI450
aI455
aI458
aI459
aI468
aI462
aI463
aI467
aI478
aI454
aI469
aI477
aI482
aI481
aI490
aI485
aI492
aI498
aI491
aI499
aI496
aI497
aI513
aI507
aI486
aI505
aI506
aI526
aI522
aI521
aI523
aI524
aI531
aI539
aI533
aI504
aI534
aI532
aI538
aI512
aI541
aI525
aI561
aI545
aI546
aI547
aI549
aI584
aI567
aI540
aI568
aI560
aI566
aI564
aI548
aI559
aI558
aI556
aI577
aI586
aI578
aI573
aI574
aI572
aI604
aI588
aI639
aI613
aI641
aI557
aI582
aI605
aI581
aI587
aI625
aI595
aI599
aI596
aI600
aI609
aI597
aI704
aI643
aI788
aI749
aI758
aI690
aI710
aI787
aI705
aI786
aI626
aI610
aI627
aI617
aI614
aI798
aI646
aI606
aI598
aI647
aI761
aI618
aI644
aI631
aI693
aI755
aI756
aI634
aI635
aI656
aI630
aI654
aI624
aI655
aI651
aI674
aI652
aI653
aI623
aI650
aI645
aI675
aI676
aI700
aI699
aI698
aI697
aI694
aI701
aI696
aI677
aI729
aI762
aI695
aI766
aI680
aI722
aI813
aI814
aI720
aI709
aI719
aI681
aI691
aI708
aI692
aI728
aI812
aI842
aI760
aI841
aI752
aI785
aI1016
aI1017
aI846
aI845
aI750
aI826
aI713
aI745
aI751
aI769
aI1021
aI821
aI737
aI721
aI714
aI825
aI776
aI767
aI927
aI727
aI768
aI931
aI898
aI907
aI909
aI1085
aI897
aI900
aI777
aI801
aI930
aI928
aI1476
aI738
aI1394
aI1475
aI908
aI929
aI910
aI1020
aI899
aI784
aI744
aI839
aI822
aI783
aI789
aI838
aI1025
aI955
aI1026
aI840
aI1150
aI804
aI868
aI857
aI858
aI856
aI772
aI773
aI795
aI855
aI794
aI1598
aI823
aI906
aI811
aI810
aI805
aI862
aI878
aI882
aI803
aI914
aI799
aI867
aI880
aI915
aI1000
aI881
aI1599
aI879
aI1715
aI1153
aI999
aI902
aI1133
aI998
aI904
aI1027
aI903
aI911
aI901
aI912
aI905
aI913
aI850
aI832
aI830
aI918
aI950
aI966
aI938
aI923
aI917
aI824
aI831
aI849
aI1039
aI940
aI967
aI925
aI1030
aI948
aI919
aI944
aI946
aI945
aI1041
aI1040
aI947
aI1035
aI873
aI877
aI875
aI872
aI874
aI1036
aI1139
aI876
aI895
aI1083
aI983
aI988
aI1084
aI896
aI976
aI984
aI893
aI1082
aI891
aI894
aI892
aI975
aI1176
aI963
aI1129
aI953
aI958
aI959
aI962
aI1314
aI1019
aI986
aI1358
aI1102
aI1330
aI1402
aI1159
aI863
aI1013
aI954
aI939
aI1138
aI1175
aI921
aI1032
aI949
aI1357
aI922
aI937
aI926
aI1140
aI916
aI864
aI1087
aI920
aI924
aI1130
aI1079
aI1031
aI1003
aI1004
aI1012
aI1078
aI1044
aI1014
aI1022
aI941
aI1144
aI1211
aI1191
aI1094
aI994
aI987
aI971
aI1010
aI1506
aI1145
aI1458
aI1189
aI1164
aI1331
aI1109
aI1071
aI1064
aI1457
aI970
aI1045
aI1419
aI993
aI1046
aI1011
aI1464
aI1268
aI1165
aI1160
aI1110
aI1973
aI1070
aI1163
aI1600
aI1267
aI1190
aI1972
aI1065
aI992
aI1601
aI1161
aI1971
aI1787
aI1378
aI1376
aI2307
aI1075
aI1222
aI1125
aI1589
aI1244
aI1421
aI1277
aI1247
aI1258
aI1074
aI1259
aI1672
aI1101
aI1100
aI1123
aI1396
aI1137
aI1151
aI1066
aI1124
aI1152
aI985
aI1738
aI1398
aI1737
aI1271
aI1255
aI1248
aI1245
aI1295
aI1095
aI1281
aI1221
aI1422
aI1256
aI1257
aI1527
aI1223
aI1246
aI1467
aI1397
aI1067
aI1792
aI2309
aI1214
aI1877
aI1162
aI1370
aI1604
aI1250
aI1562
aI1371
aI1141
aI1169
aI1368
aI1360
aI1126
aI1375
aI1298
aI1106
aI1105
aI2023
aI1405
aI1493
aI1629
aI1445
aI1251
aI1351
aI2158
aI1177
aI1602
aI2156
aI1254
aI1531
aI2020
aI1352
aI1367
aI1170
aI1308
aI1369
aI1374
aI1831
aI1178
aI1561
aI1628
aI1359
aI1252
aI1832
aI1372
aI2022
aI1630
aI1253
aI1285
aI1249
aI1362
aI1224
aI1339
aI1171
aI1603
aI1350
aI1341
aI1340
aI2021
aI1553
aI1361
aI1373
aI1763
aI1952
aI1288
aI1626
aI2159
aI1200
aI1181
aI2160
aI1447
aI1490
aI1182
aI1423
aI1624
aI1627
aI1953
aI1203
aI1403
aI1479
aI1424
aI1764
aI1317
aI1480
aI1617
aI1122
aI1623
aI1202
aI1955
aI1793
aI2262
aI1621
aI1309
aI1634
aI1507
aI1635
aI1489
aI2162
aI1201
aI1404
aI1282
aI1826
aI1289
aI1477
aI1448
aI1287
aI1827
aI2261
aI1305
aI1777
aI1625
aI1488
aI1452
aI1828
aI1622
aI1478
aI1954
aI1283
aI1481
aI1453
aI1712
aI1711
aI1936
aI1718
aI1935
aI1911
aI1772
aI1353
aI1186
aI1215
aI2019
aI1356
aI2015
aI1498
aI1688
aI1862
aI1863
aI1354
aI1914
aI1216
aI1903
aI2016
aI1336
aI1835
aI1355
aI1902
aI1611
aI1554
aI2062
aI1684
aI2102
aI2018
aI1833
aI1899
aI2061
aI1502
aI2060
aI2253
aI1185
aI2059
aI1651
aI1578
aI2330
aI1576
aI1465
aI2058
aI1545
aI1937
aI1814
aI1497
aI1751
aI2329
aI1546
aI1413
aI2372
aI1945
aI2252
aI2251
aI1771
aI2017
aI1946
aI2057
aI2373
aI2049
aI1501
aI1466
aI2374
aI1834
aI1194
aI2320
aI1265
aI1195
aI2072
aI1264
aI1193
aI2074
aI1470
aI1386
aI1908
aI1912
aI1485
aI2200
aI1905
aI2071
aI1486
aI2434
aI1487
aI1484
aI1716
aI2202
aI2201
aI1263
aI1270
aI1920
aI1717
aI1616
aI1192
aI2321
aI2203
aI1539
aI1921
aI1906
aI1896
aI1387
aI2215
aI2376
aI1723
aI1907
aI1335
aI2073
aI2377
aI1538
aI1724
aI2075
aI1412
aI2070
aI2105
aI2375
aI2204
aI1293
aI1234
aI1238
aI1239
aI1272
aI1924
aI1237
aI1390
aI2098
aI1233
aI1292
aI2186
aI1518
aI1212
aI1925
aI1236
aI1643
aI1235
aI2452
aI1926
aI1519
aI1471
aI1391
aI2097
aI1299
aI1240
aI1707
aI1687
aI2325
aI1708
aI2436
aI2324
aI1213
aI2240
aI2437
aI1644
aI2241
aI1577
aI1318
aI1345
aI1494
aI1780
aI1297
aI1380
aI1692
aI1304
aI1276
aI1381
aI1344
aI1529
aI1328
aI1540
aI1343
aI1382
aI1379
aI2048
aI1383
aI1654
aI1329
aI2175
aI2292
aI2234
aI1694
aI1929
aI1930
aI2047
aI2187
aI1522
aI1342
aI1530
aI1922
aI1566
aI1671
aI1508
aI1659
aI1459
aI1313
aI1590
aI1312
aI2296
aI1571
aI1698
aI1558
aI1411
aI1754
aI1410
aI1567
aI1839
aI1650
aI1427
aI1416
aI1670
aI1923
aI1755
aI1697
aI2189
aI1417
aI1524
aI1665
aI2267
aI1572
aI1557
aI2266
aI1693
aI1957
aI1851
aI1523
aI1959
aI1960
aI2104
aI1430
aI1658
aI1636
aI1541
aI1958
aI1956
aI1431
aI1963
aI1719
aI1583
aI1720
aI1568
aI1740
aI1584
aI1842
aI1586
aI2083
aI2448
aI2084
aI2085
aI1612
aI1432
aI2192
aI1852
aI1429
aI1542
aI1964
aI1585
aI1841
aI2421
aI1857
aI1854
aI1666
aI1786
aI1853
aI2090
aI1948
aI1746
aI1760
aI2239
aI1548
aI1758
aI1759
aI1449
aI1729
aI1443
aI2237
aI2092
aI1745
aI1664
aI1678
aI2438
aI2331
aI2233
aI1750
aI1749
aI1547
aI1986
aI1947
aI2088
aI2302
aI2287
aI1970
aI2464
aI1840
aI2460
aI2091
aI1949
aI2238
aI1667
aI2341
aI2332
aI1442
aI1968
aI2339
aI1969
aI1967
aI1549
aI2139
aI1985
aI1938
aI1987
aI1640
aI1900
aI1779
aI2276
aI2122
aI1594
aI1593
aI1704
aI1685
aI1615
aI1639
aI1876
aI2121
aI1743
aI1812
aI2205
aI1870
aI2135
aI1978
aI2210
aI2298
aI1981
aI2288
aI2206
aI2297
aI2360
aI2275
aI1871
aI2304
aI1813
aI2289
aI2465
aI2136
aI1979
aI2395
aI1686
aI2040
aI2208
aI1778
aI2273
aI1744
aI1980
aI2209
aI2207
aI1846
aI1657
aI1767
aI2094
aI1614
aI1822
aI1823
aI1730
aI1825
aI1656
aI2064
aI2033
aI2067
aI2378
aI1613
aI2069
aI2032
aI2132
aI1819
aI2068
aI2030
aI1845
aI1731
aI2379
aI2196
aI1768
aI2197
aI1818
aI2303
aI2277
aI2066
aI2031
aI1824
aI2380
aI2345
aI2063
aI2218
aI2381
aI2034
aI2346
aI2131
aI2065
aI2366
aI2344
aI2140
aI1785
aI1858
aI2166
aI1702
aI2039
aI1867
aI2126
aI1703
aI2118
aI1735
aI2128
aI2219
aI1734
aI2449
aI2161
aI1784
aI1879
aI2244
aI2127
aI1859
aI2165
aI2193
aI1866
aI1736
aI2471
aI2038
aI2191
aI2472
aI2470
aI2469
aI1886
aI1999
aI2117
aI2108
aI1885
aI1942
aI1996
aI2116
aI1941
aI1890
aI2000
aI2109
aI1888
aI2221
aI2002
aI2248
aI1889
aI1998
aI2274
aI2220
aI1891
aI2115
aI2230
aI1997
aI1895
aI1887
aI2001
aI1811
aI2003
aI2178
aI2027
aI2024
aI2011
aI2089
aI2026
aI2025
aI2350
aI2154
aI2013
aI2012
aI2029
aI2358
aI2028
aI2169
aI2385
aI2179
aI2173
aI2348
aI2340
aI2231
aI2356
aI2174
aI2014
aI2225
aI2357
aI2009
aI2232
aI2010
aI2224
aI2347
aI2153
aI2349
aI2409
aI2355
aI2170
aI2257
aI2103
aI2043
aI2281
aI2294
aI2151
aI2183
aI2146
aI2415
aI2256
aI2052
aI2080
aI2335
aI2390
aI2053
aI2432
aI2263
aI2254
aI2255
aI2312
aI2313
aI2367
aI2425
aI2264
aI2422
aI2265
aI2152
aI2394
aI2447
aI2247
aI2334
aI2333
aI2461
aI2475
aI2473
aI2474
aI2280
aI2453
aI2392
aI2391
aI2182
aI2213
aI2214
aI2295
aI2308
aI2442
aI2430
aI2404
aI2413
aI2402
aI2456
aI2457
aI2441
aI2405
aI2317
aI2316
aI2403
aI2389
aI2145
aI2144
aI2079
aI2401
aI2412
aI2093
aI2393
aI2426
aI2368
aI2044
aI2431
aI2411
aI2414
asS'size'
p6849
I1400
sb.